Component: ARM Compiler 5.06 update 5 (build 528) Tool: armlink [4d35e2]

==============================================================================

Section Cross References

    main.o(i.camera_new_pathname) refers to _printf_pad.o(.text) for _printf_pre_padding
    main.o(i.camera_new_pathname) refers to _printf_percent.o(.ARM.Collect$$_printf_percent$$00000000) for _printf_percent
    main.o(i.camera_new_pathname) refers to _printf_d.o(.ARM.Collect$$_printf_percent$$00000009) for _printf_d
    main.o(i.camera_new_pathname) refers to _printf_dec.o(.text) for _printf_int_dec
    main.o(i.camera_new_pathname) refers to noretval__2sprintf.o(.text) for __2sprintf
    main.o(i.camera_new_pathname) refers to ff.o(i.f_open) for f_open
    main.o(i.camera_new_pathname) refers to exfuns.o(.data) for ftemp
    main.o(i.main) refers to delay.o(i.delay_init) for delay_init
    main.o(i.main) refers to misc.o(i.NVIC_PriorityGroupConfig) for NVIC_PriorityGroupConfig
    main.o(i.main) refers to usart.o(i.uart_init) for uart_init
    main.o(i.main) refers to led.o(i.LED_Init) for LED_Init
    main.o(i.main) refers to key.o(i.KEY_Init) for KEY_Init
    main.o(i.main) refers to lcd.o(i.LCD_Init) for LCD_Init
    main.o(i.main) refers to beep.o(i.BEEP_Init) for BEEP_Init
    main.o(i.main) refers to w25qxx.o(i.W25QXX_Init) for W25QXX_Init
    main.o(i.main) refers to malloc.o(i.my_mem_init) for my_mem_init
    main.o(i.main) refers to exfuns.o(i.exfuns_init) for exfuns_init
    main.o(i.main) refers to ff.o(i.f_mount) for f_mount
    main.o(i.main) refers to bsp_adc.o(i.ADCx_Init) for ADCx_Init
    main.o(i.main) refers to oled.o(i.OLED_Init) for OLED_Init
    main.o(i.main) refers to oled.o(i.OLED_ShowString) for OLED_ShowString
    main.o(i.main) refers to lcd.o(i.LCD_ShowString) for LCD_ShowString
    main.o(i.main) refers to delay.o(i.delay_ms) for delay_ms
    main.o(i.main) refers to lcd.o(i.LCD_Fill) for LCD_Fill
    main.o(i.main) refers to fontupd.o(i.font_init) for font_init
    main.o(i.main) refers to text.o(i.Show_Str) for Show_Str
    main.o(i.main) refers to ff.o(i.f_mkdir) for f_mkdir
    main.o(i.main) refers to malloc.o(i.mymalloc) for mymalloc
    main.o(i.main) refers to ov2640.o(i.OV2640_Init) for OV2640_Init
    main.o(i.main) refers to ov2640.o(i.OV2640_RGB565_Mode) for OV2640_RGB565_Mode
    main.o(i.main) refers to ov2640.o(i.OV2640_OutSize_Set) for OV2640_OutSize_Set
    main.o(i.main) refers to main.o(i.ov2640_speed_ctrl) for ov2640_speed_ctrl
    main.o(i.main) refers to dma.o(i.MYDMA_SRAMLCD_Init) for MYDMA_SRAMLCD_Init
    main.o(i.main) refers to key.o(i.KEY_Scan) for KEY_Scan
    main.o(i.main) refers to main.o(i.camera_new_pathname) for camera_new_pathname
    main.o(i.main) refers to main.o(i.ov2640_jpg_photo) for ov2640_jpg_photo
    main.o(i.main) refers to main.o(i.ov2640_sendphoto) for ov2640_sendphoto
    main.o(i.main) refers to data_processing.o(i.PH_Value_Conversion) for PH_Value_Conversion
    main.o(i.main) refers to data_processing.o(i.Display_Data) for Display_Data
    main.o(i.main) refers to data_processing.o(i.TDS_Value_Conversion) for TDS_Value_Conversion
    main.o(i.main) refers to data_processing.o(i.TEMP_Value_Conversion) for TEMP_Value_Conversion
    main.o(i.main) refers to data_processing.o(i.EC_Value_Conversion) for EC_Value_Conversion
    main.o(i.main) refers to data_processing.o(i.printf_Data) for printf_Data
    main.o(i.main) refers to delay1.o(i.delay1_ms) for delay1_ms
    main.o(i.main) refers to usmart_config.o(.data) for usmart_dev
    main.o(i.main) refers to exfuns.o(.data) for fs
    main.o(i.main) refers to lcd.o(.data) for POINT_COLOR
    main.o(i.main) refers to main.o(.data) for .data
    main.o(i.main) refers to lcd.o(.bss) for lcddev
    main.o(i.main) refers to timer.o(.data) for ov_frame
    main.o(i.ov2640_jpg_photo) refers to _printf_percent.o(.ARM.Collect$$_printf_percent$$00000000) for _printf_percent
    main.o(i.ov2640_jpg_photo) refers to _printf_d.o(.ARM.Collect$$_printf_percent$$00000009) for _printf_d
    main.o(i.ov2640_jpg_photo) refers to _printf_dec.o(.text) for _printf_int_dec
    main.o(i.ov2640_jpg_photo) refers to malloc.o(i.mymalloc) for mymalloc
    main.o(i.ov2640_jpg_photo) refers to ov2640.o(i.OV2640_JPEG_Mode) for OV2640_JPEG_Mode
    main.o(i.ov2640_jpg_photo) refers to ov2640.o(i.OV2640_OutSize_Set) for OV2640_OutSize_Set
    main.o(i.ov2640_jpg_photo) refers to sccb.o(i.SCCB_WR_Reg) for SCCB_WR_Reg
    main.o(i.ov2640_jpg_photo) refers to ff.o(i.f_open) for f_open
    main.o(i.ov2640_jpg_photo) refers to noretval__2printf.o(.text) for __2printf
    main.o(i.ov2640_jpg_photo) refers to ff.o(i.f_write) for f_write
    main.o(i.ov2640_jpg_photo) refers to ff.o(i.f_close) for f_close
    main.o(i.ov2640_jpg_photo) refers to ov2640.o(i.OV2640_RGB565_Mode) for OV2640_RGB565_Mode
    main.o(i.ov2640_jpg_photo) refers to malloc.o(i.myfree) for myfree
    main.o(i.ov2640_jpg_photo) refers to main.o(.data) for .data
    main.o(i.ov2640_sendphoto) refers to _printf_percent.o(.ARM.Collect$$_printf_percent$$00000000) for _printf_percent
    main.o(i.ov2640_sendphoto) refers to _printf_s.o(.ARM.Collect$$_printf_percent$$00000014) for _printf_s
    main.o(i.ov2640_sendphoto) refers to _printf_str.o(.text) for _printf_str
    main.o(i.ov2640_sendphoto) refers to ov2640.o(i.OV2640_JPEG_Mode) for OV2640_JPEG_Mode
    main.o(i.ov2640_sendphoto) refers to ov2640.o(i.OV2640_OutSize_Set) for OV2640_OutSize_Set
    main.o(i.ov2640_sendphoto) refers to sccb.o(i.SCCB_WR_Reg) for SCCB_WR_Reg
    main.o(i.ov2640_sendphoto) refers to lcd.o(i.LCD_ShowString) for LCD_ShowString
    main.o(i.ov2640_sendphoto) refers to stm32f10x_usart.o(i.USART_GetFlagStatus) for USART_GetFlagStatus
    main.o(i.ov2640_sendphoto) refers to stm32f10x_usart.o(i.USART_SendData) for USART_SendData
    main.o(i.ov2640_sendphoto) refers to key.o(i.KEY_Scan) for KEY_Scan
    main.o(i.ov2640_sendphoto) refers to noretval__2sprintf.o(.text) for __2sprintf
    main.o(i.ov2640_sendphoto) refers to delay.o(i.delay_ms) for delay_ms
    main.o(i.ov2640_sendphoto) refers to main.o(.constdata) for .constdata
    main.o(i.ov2640_sendphoto) refers to main.o(.data) for .data
    main.o(i.ov2640_speed_ctrl) refers to sccb.o(i.SCCB_WR_Reg) for SCCB_WR_Reg
    main.o(i.ov2640_speed_ctrl) refers to lcd.o(.bss) for lcddev
    main.o(.data) refers to main.o(.conststring) for .conststring
    main.o(.data) refers to main.o(.conststring) for .conststring
    system_stm32f10x.o(i.SystemCoreClockUpdate) refers to system_stm32f10x.o(.data) for .data
    system_stm32f10x.o(i.SystemInit) refers to system_stm32f10x.o(i.SetSysClockTo72) for SetSysClockTo72
    led.o(i.LED_Init) refers to stm32f10x_rcc.o(i.RCC_APB2PeriphClockCmd) for RCC_APB2PeriphClockCmd
    led.o(i.LED_Init) refers to stm32f10x_gpio.o(i.GPIO_Init) for GPIO_Init
    led.o(i.LED_Init) refers to stm32f10x_gpio.o(i.GPIO_SetBits) for GPIO_SetBits
    key.o(i.KEY_Init) refers to stm32f10x_rcc.o(i.RCC_APB2PeriphClockCmd) for RCC_APB2PeriphClockCmd
    key.o(i.KEY_Init) refers to stm32f10x_gpio.o(i.GPIO_Init) for GPIO_Init
    key.o(i.KEY_Scan) refers to stm32f10x_gpio.o(i.GPIO_ReadInputDataBit) for GPIO_ReadInputDataBit
    key.o(i.KEY_Scan) refers to delay.o(i.delay_ms) for delay_ms
    key.o(i.KEY_Scan) refers to key.o(.data) for .data
    lcd.o(i.LCD_Clear) refers to lcd.o(i.LCD_SetCursor) for LCD_SetCursor
    lcd.o(i.LCD_Clear) refers to lcd.o(i.LCD_WriteRAM_Prepare) for LCD_WriteRAM_Prepare
    lcd.o(i.LCD_Clear) refers to lcd.o(.bss) for .bss
    lcd.o(i.LCD_Color_Fill) refers to lcd.o(i.LCD_SetCursor) for LCD_SetCursor
    lcd.o(i.LCD_Color_Fill) refers to lcd.o(i.LCD_WriteRAM_Prepare) for LCD_WriteRAM_Prepare
    lcd.o(i.LCD_DisplayOff) refers to lcd.o(.bss) for .bss
    lcd.o(i.LCD_DisplayOn) refers to lcd.o(.bss) for .bss
    lcd.o(i.LCD_Display_Dir) refers to lcd.o(i.LCD_Scan_Dir) for LCD_Scan_Dir
    lcd.o(i.LCD_Display_Dir) refers to lcd.o(.bss) for .bss
    lcd.o(i.LCD_DrawLine) refers to lcd.o(i.LCD_DrawPoint) for LCD_DrawPoint
    lcd.o(i.LCD_DrawPoint) refers to lcd.o(i.LCD_SetCursor) for LCD_SetCursor
    lcd.o(i.LCD_DrawPoint) refers to lcd.o(i.LCD_WriteRAM_Prepare) for LCD_WriteRAM_Prepare
    lcd.o(i.LCD_DrawPoint) refers to lcd.o(.data) for .data
    lcd.o(i.LCD_DrawRectangle) refers to lcd.o(i.LCD_DrawLine) for LCD_DrawLine
    lcd.o(i.LCD_Draw_Circle) refers to lcd.o(i.LCD_DrawPoint) for LCD_DrawPoint
    lcd.o(i.LCD_Fast_DrawPoint) refers to lcd.o(.bss) for .bss
    lcd.o(i.LCD_Fill) refers to lcd.o(i.LCD_SetCursor) for LCD_SetCursor
    lcd.o(i.LCD_Fill) refers to lcd.o(i.LCD_WriteRAM_Prepare) for LCD_WriteRAM_Prepare
    lcd.o(i.LCD_Init) refers to _printf_percent.o(.ARM.Collect$$_printf_percent$$00000000) for _printf_percent
    lcd.o(i.LCD_Init) refers to _printf_x.o(.ARM.Collect$$_printf_percent$$0000000C) for _printf_x
    lcd.o(i.LCD_Init) refers to _printf_hex_int.o(.text) for _printf_longlong_hex
    lcd.o(i.LCD_Init) refers to stm32f10x_rcc.o(i.RCC_AHBPeriphClockCmd) for RCC_AHBPeriphClockCmd
    lcd.o(i.LCD_Init) refers to stm32f10x_rcc.o(i.RCC_APB2PeriphClockCmd) for RCC_APB2PeriphClockCmd
    lcd.o(i.LCD_Init) refers to stm32f10x_gpio.o(i.GPIO_Init) for GPIO_Init
    lcd.o(i.LCD_Init) refers to stm32f10x_fsmc.o(i.FSMC_NORSRAMInit) for FSMC_NORSRAMInit
    lcd.o(i.LCD_Init) refers to stm32f10x_fsmc.o(i.FSMC_NORSRAMCmd) for FSMC_NORSRAMCmd
    lcd.o(i.LCD_Init) refers to delay.o(i.delay_ms) for delay_ms
    lcd.o(i.LCD_Init) refers to lcd.o(i.LCD_RD_DATA) for LCD_RD_DATA
    lcd.o(i.LCD_Init) refers to lcd.o(i.LCD_WriteReg) for LCD_WriteReg
    lcd.o(i.LCD_Init) refers to noretval__2printf.o(.text) for __2printf
    lcd.o(i.LCD_Init) refers to lcd.o(.bss) for .bss
    lcd.o(i.LCD_Init) refers to delay.o(i.delay_us) for delay_us
    lcd.o(i.LCD_Init) refers to lcd.o(i.LCD_SSD_BackLightSet) for LCD_SSD_BackLightSet
    lcd.o(i.LCD_Init) refers to lcd.o(i.LCD_Display_Dir) for LCD_Display_Dir
    lcd.o(i.LCD_Init) refers to lcd.o(i.LCD_Clear) for LCD_Clear
    lcd.o(i.LCD_ReadPoint) refers to lcd.o(i.LCD_SetCursor) for LCD_SetCursor
    lcd.o(i.LCD_ReadPoint) refers to lcd.o(i.LCD_RD_DATA) for LCD_RD_DATA
    lcd.o(i.LCD_ReadPoint) refers to lcd.o(.bss) for .bss
    lcd.o(i.LCD_ReadReg) refers to delay.o(i.delay_us) for delay_us
    lcd.o(i.LCD_ReadReg) refers to lcd.o(i.LCD_RD_DATA) for LCD_RD_DATA
    lcd.o(i.LCD_SSD_BackLightSet) refers to dflt_clz.o(x$fpl$dfltu) for __aeabi_ui2d
    lcd.o(i.LCD_SSD_BackLightSet) refers to dmul.o(x$fpl$dmul) for __aeabi_dmul
    lcd.o(i.LCD_SSD_BackLightSet) refers to dfixu.o(x$fpl$dfixu) for __aeabi_d2uiz
    lcd.o(i.LCD_Scan_Dir) refers to lcd.o(i.LCD_WriteReg) for LCD_WriteReg
    lcd.o(i.LCD_Scan_Dir) refers to lcd.o(.bss) for .bss
    lcd.o(i.LCD_SetCursor) refers to lcd.o(.bss) for .bss
    lcd.o(i.LCD_Set_Window) refers to lcd.o(.bss) for .bss
    lcd.o(i.LCD_ShowChar) refers to lcd.o(i.LCD_Fast_DrawPoint) for LCD_Fast_DrawPoint
    lcd.o(i.LCD_ShowChar) refers to lcd.o(.constdata) for .constdata
    lcd.o(i.LCD_ShowChar) refers to lcd.o(.data) for .data
    lcd.o(i.LCD_ShowChar) refers to lcd.o(.bss) for .bss
    lcd.o(i.LCD_ShowNum) refers to lcd.o(i.LCD_Pow) for LCD_Pow
    lcd.o(i.LCD_ShowNum) refers to lcd.o(i.LCD_ShowChar) for LCD_ShowChar
    lcd.o(i.LCD_ShowString) refers to lcd.o(i.LCD_ShowChar) for LCD_ShowChar
    lcd.o(i.LCD_ShowxNum) refers to lcd.o(i.LCD_Pow) for LCD_Pow
    lcd.o(i.LCD_ShowxNum) refers to lcd.o(i.LCD_ShowChar) for LCD_ShowChar
    lcd.o(i.LCD_WriteRAM_Prepare) refers to lcd.o(.bss) for .bss
    spi.o(i.SPI2_Init) refers to stm32f10x_rcc.o(i.RCC_APB2PeriphClockCmd) for RCC_APB2PeriphClockCmd
    spi.o(i.SPI2_Init) refers to stm32f10x_rcc.o(i.RCC_APB1PeriphClockCmd) for RCC_APB1PeriphClockCmd
    spi.o(i.SPI2_Init) refers to stm32f10x_gpio.o(i.GPIO_Init) for GPIO_Init
    spi.o(i.SPI2_Init) refers to stm32f10x_gpio.o(i.GPIO_SetBits) for GPIO_SetBits
    spi.o(i.SPI2_Init) refers to stm32f10x_spi.o(i.SPI_Init) for SPI_Init
    spi.o(i.SPI2_Init) refers to stm32f10x_spi.o(i.SPI_Cmd) for SPI_Cmd
    spi.o(i.SPI2_Init) refers to spi.o(i.SPI2_ReadWriteByte) for SPI2_ReadWriteByte
    spi.o(i.SPI2_ReadWriteByte) refers to stm32f10x_spi.o(i.SPI_I2S_GetFlagStatus) for SPI_I2S_GetFlagStatus
    spi.o(i.SPI2_ReadWriteByte) refers to stm32f10x_spi.o(i.SPI_I2S_SendData) for SPI_I2S_SendData
    spi.o(i.SPI2_ReadWriteByte) refers to stm32f10x_spi.o(i.SPI_I2S_ReceiveData) for SPI_I2S_ReceiveData
    spi.o(i.SPI2_SetSpeed) refers to stm32f10x_spi.o(i.SPI_Cmd) for SPI_Cmd
    w25qxx.o(i.W25QXX_Erase_Chip) refers to w25qxx.o(i.W25QXX_Write_Enable) for W25QXX_Write_Enable
    w25qxx.o(i.W25QXX_Erase_Chip) refers to w25qxx.o(i.W25QXX_Wait_Busy) for W25QXX_Wait_Busy
    w25qxx.o(i.W25QXX_Erase_Chip) refers to spi.o(i.SPI2_ReadWriteByte) for SPI2_ReadWriteByte
    w25qxx.o(i.W25QXX_Erase_Sector) refers to _printf_percent.o(.ARM.Collect$$_printf_percent$$00000000) for _printf_percent
    w25qxx.o(i.W25QXX_Erase_Sector) refers to _printf_x.o(.ARM.Collect$$_printf_percent$$0000000C) for _printf_x
    w25qxx.o(i.W25QXX_Erase_Sector) refers to _printf_hex_int.o(.text) for _printf_longlong_hex
    w25qxx.o(i.W25QXX_Erase_Sector) refers to noretval__2printf.o(.text) for __2printf
    w25qxx.o(i.W25QXX_Erase_Sector) refers to w25qxx.o(i.W25QXX_Write_Enable) for W25QXX_Write_Enable
    w25qxx.o(i.W25QXX_Erase_Sector) refers to w25qxx.o(i.W25QXX_Wait_Busy) for W25QXX_Wait_Busy
    w25qxx.o(i.W25QXX_Erase_Sector) refers to spi.o(i.SPI2_ReadWriteByte) for SPI2_ReadWriteByte
    w25qxx.o(i.W25QXX_Init) refers to stm32f10x_rcc.o(i.RCC_APB2PeriphClockCmd) for RCC_APB2PeriphClockCmd
    w25qxx.o(i.W25QXX_Init) refers to stm32f10x_gpio.o(i.GPIO_Init) for GPIO_Init
    w25qxx.o(i.W25QXX_Init) refers to stm32f10x_gpio.o(i.GPIO_SetBits) for GPIO_SetBits
    w25qxx.o(i.W25QXX_Init) refers to spi.o(i.SPI2_Init) for SPI2_Init
    w25qxx.o(i.W25QXX_Init) refers to spi.o(i.SPI2_SetSpeed) for SPI2_SetSpeed
    w25qxx.o(i.W25QXX_Init) refers to w25qxx.o(i.W25QXX_ReadID) for W25QXX_ReadID
    w25qxx.o(i.W25QXX_Init) refers to w25qxx.o(.data) for .data
    w25qxx.o(i.W25QXX_PowerDown) refers to spi.o(i.SPI2_ReadWriteByte) for SPI2_ReadWriteByte
    w25qxx.o(i.W25QXX_PowerDown) refers to delay.o(i.delay_us) for delay_us
    w25qxx.o(i.W25QXX_Read) refers to spi.o(i.SPI2_ReadWriteByte) for SPI2_ReadWriteByte
    w25qxx.o(i.W25QXX_ReadID) refers to spi.o(i.SPI2_ReadWriteByte) for SPI2_ReadWriteByte
    w25qxx.o(i.W25QXX_ReadSR) refers to spi.o(i.SPI2_ReadWriteByte) for SPI2_ReadWriteByte
    w25qxx.o(i.W25QXX_WAKEUP) refers to spi.o(i.SPI2_ReadWriteByte) for SPI2_ReadWriteByte
    w25qxx.o(i.W25QXX_WAKEUP) refers to delay.o(i.delay_us) for delay_us
    w25qxx.o(i.W25QXX_Wait_Busy) refers to w25qxx.o(i.W25QXX_ReadSR) for W25QXX_ReadSR
    w25qxx.o(i.W25QXX_Write) refers to malloc.o(i.mymalloc) for mymalloc
    w25qxx.o(i.W25QXX_Write) refers to w25qxx.o(i.W25QXX_Read) for W25QXX_Read
    w25qxx.o(i.W25QXX_Write) refers to w25qxx.o(i.W25QXX_Erase_Sector) for W25QXX_Erase_Sector
    w25qxx.o(i.W25QXX_Write) refers to w25qxx.o(i.W25QXX_Write_NoCheck) for W25QXX_Write_NoCheck
    w25qxx.o(i.W25QXX_Write) refers to malloc.o(i.myfree) for myfree
    w25qxx.o(i.W25QXX_Write_Disable) refers to spi.o(i.SPI2_ReadWriteByte) for SPI2_ReadWriteByte
    w25qxx.o(i.W25QXX_Write_Enable) refers to spi.o(i.SPI2_ReadWriteByte) for SPI2_ReadWriteByte
    w25qxx.o(i.W25QXX_Write_NoCheck) refers to w25qxx.o(i.W25QXX_Write_Page) for W25QXX_Write_Page
    w25qxx.o(i.W25QXX_Write_Page) refers to w25qxx.o(i.W25QXX_Write_Enable) for W25QXX_Write_Enable
    w25qxx.o(i.W25QXX_Write_Page) refers to spi.o(i.SPI2_ReadWriteByte) for SPI2_ReadWriteByte
    w25qxx.o(i.W25QXX_Write_Page) refers to w25qxx.o(i.W25QXX_Wait_Busy) for W25QXX_Wait_Busy
    w25qxx.o(i.W25QXX_Write_SR) refers to spi.o(i.SPI2_ReadWriteByte) for SPI2_ReadWriteByte
    sdio_sdcard.o(i.CmdError) refers to stm32f10x_sdio.o(i.SDIO_GetFlagStatus) for SDIO_GetFlagStatus
    sdio_sdcard.o(i.CmdError) refers to stm32f10x_sdio.o(i.SDIO_ClearFlag) for SDIO_ClearFlag
    sdio_sdcard.o(i.CmdResp1Error) refers to stm32f10x_sdio.o(i.SDIO_GetFlagStatus) for SDIO_GetFlagStatus
    sdio_sdcard.o(i.CmdResp1Error) refers to stm32f10x_sdio.o(i.SDIO_ClearFlag) for SDIO_ClearFlag
    sdio_sdcard.o(i.CmdResp2Error) refers to stm32f10x_sdio.o(i.SDIO_GetFlagStatus) for SDIO_GetFlagStatus
    sdio_sdcard.o(i.CmdResp2Error) refers to stm32f10x_sdio.o(i.SDIO_ClearFlag) for SDIO_ClearFlag
    sdio_sdcard.o(i.CmdResp3Error) refers to stm32f10x_sdio.o(i.SDIO_GetFlagStatus) for SDIO_GetFlagStatus
    sdio_sdcard.o(i.CmdResp3Error) refers to stm32f10x_sdio.o(i.SDIO_ClearFlag) for SDIO_ClearFlag
    sdio_sdcard.o(i.CmdResp6Error) refers to stm32f10x_sdio.o(i.SDIO_GetFlagStatus) for SDIO_GetFlagStatus
    sdio_sdcard.o(i.CmdResp6Error) refers to stm32f10x_sdio.o(i.SDIO_ClearFlag) for SDIO_ClearFlag
    sdio_sdcard.o(i.CmdResp7Error) refers to stm32f10x_sdio.o(i.SDIO_ClearFlag) for SDIO_ClearFlag
    sdio_sdcard.o(i.FindSCR) refers to stm32f10x_sdio.o(i.SDIO_SendCommand) for SDIO_SendCommand
    sdio_sdcard.o(i.FindSCR) refers to sdio_sdcard.o(i.CmdResp1Error) for CmdResp1Error
    sdio_sdcard.o(i.FindSCR) refers to stm32f10x_sdio.o(i.SDIO_DataConfig) for SDIO_DataConfig
    sdio_sdcard.o(i.FindSCR) refers to stm32f10x_sdio.o(i.SDIO_GetFlagStatus) for SDIO_GetFlagStatus
    sdio_sdcard.o(i.FindSCR) refers to stm32f10x_sdio.o(i.SDIO_ReadData) for SDIO_ReadData
    sdio_sdcard.o(i.FindSCR) refers to stm32f10x_sdio.o(i.SDIO_ClearFlag) for SDIO_ClearFlag
    sdio_sdcard.o(i.FindSCR) refers to sdio_sdcard.o(.bss) for .bss
    sdio_sdcard.o(i.FindSCR) refers to sdio_sdcard.o(.data) for .data
    sdio_sdcard.o(i.IsCardProgramming) refers to stm32f10x_sdio.o(i.SDIO_SendCommand) for SDIO_SendCommand
    sdio_sdcard.o(i.IsCardProgramming) refers to stm32f10x_sdio.o(i.SDIO_GetFlagStatus) for SDIO_GetFlagStatus
    sdio_sdcard.o(i.IsCardProgramming) refers to stm32f10x_sdio.o(i.SDIO_ClearFlag) for SDIO_ClearFlag
    sdio_sdcard.o(i.IsCardProgramming) refers to sdio_sdcard.o(.data) for .data
    sdio_sdcard.o(i.IsCardProgramming) refers to sdio_sdcard.o(.bss) for .bss
    sdio_sdcard.o(i.SDEnWideBus) refers to sdio_sdcard.o(i.FindSCR) for FindSCR
    sdio_sdcard.o(i.SDEnWideBus) refers to stm32f10x_sdio.o(i.SDIO_SendCommand) for SDIO_SendCommand
    sdio_sdcard.o(i.SDEnWideBus) refers to sdio_sdcard.o(i.CmdResp1Error) for CmdResp1Error
    sdio_sdcard.o(i.SDEnWideBus) refers to sdio_sdcard.o(.data) for .data
    sdio_sdcard.o(i.SDEnWideBus) refers to sdio_sdcard.o(.bss) for .bss
    sdio_sdcard.o(i.SDIO_IRQHandler) refers to sdio_sdcard.o(i.SD_ProcessIRQSrc) for SD_ProcessIRQSrc
    sdio_sdcard.o(i.SD_DMA_Config) refers to stm32f10x_rcc.o(i.RCC_AHBPeriphClockCmd) for RCC_AHBPeriphClockCmd
    sdio_sdcard.o(i.SD_DMA_Config) refers to stm32f10x_dma.o(i.DMA_DeInit) for DMA_DeInit
    sdio_sdcard.o(i.SD_DMA_Config) refers to stm32f10x_dma.o(i.DMA_Cmd) for DMA_Cmd
    sdio_sdcard.o(i.SD_DMA_Config) refers to stm32f10x_dma.o(i.DMA_Init) for DMA_Init
    sdio_sdcard.o(i.SD_EnableWideBusOperation) refers to sdio_sdcard.o(i.SDEnWideBus) for SDEnWideBus
    sdio_sdcard.o(i.SD_EnableWideBusOperation) refers to sdio_sdcard.o(.data) for .data
    sdio_sdcard.o(i.SD_GetCardInfo) refers to sdio_sdcard.o(.data) for .data
    sdio_sdcard.o(i.SD_GetCardInfo) refers to sdio_sdcard.o(.bss) for .bss
    sdio_sdcard.o(i.SD_GetState) refers to sdio_sdcard.o(i.SD_SendStatus) for SD_SendStatus
    sdio_sdcard.o(i.SD_Init) refers to stm32f10x_rcc.o(i.RCC_APB2PeriphClockCmd) for RCC_APB2PeriphClockCmd
    sdio_sdcard.o(i.SD_Init) refers to stm32f10x_rcc.o(i.RCC_AHBPeriphClockCmd) for RCC_AHBPeriphClockCmd
    sdio_sdcard.o(i.SD_Init) refers to stm32f10x_gpio.o(i.GPIO_Init) for GPIO_Init
    sdio_sdcard.o(i.SD_Init) refers to stm32f10x_sdio.o(i.SDIO_DeInit) for SDIO_DeInit
    sdio_sdcard.o(i.SD_Init) refers to misc.o(i.NVIC_Init) for NVIC_Init
    sdio_sdcard.o(i.SD_Init) refers to sdio_sdcard.o(i.SD_PowerON) for SD_PowerON
    sdio_sdcard.o(i.SD_Init) refers to sdio_sdcard.o(i.SD_InitializeCards) for SD_InitializeCards
    sdio_sdcard.o(i.SD_Init) refers to sdio_sdcard.o(i.SD_GetCardInfo) for SD_GetCardInfo
    sdio_sdcard.o(i.SD_Init) refers to sdio_sdcard.o(i.SD_SelectDeselect) for SD_SelectDeselect
    sdio_sdcard.o(i.SD_Init) refers to sdio_sdcard.o(i.SD_EnableWideBusOperation) for SD_EnableWideBusOperation
    sdio_sdcard.o(i.SD_Init) refers to sdio_sdcard.o(i.SDIO_Clock_Set) for SDIO_Clock_Set
    sdio_sdcard.o(i.SD_Init) refers to sdio_sdcard.o(i.SD_SetDeviceMode) for SD_SetDeviceMode
    sdio_sdcard.o(i.SD_Init) refers to sdio_sdcard.o(.bss) for .bss
    sdio_sdcard.o(i.SD_Init) refers to sdio_sdcard.o(.data) for .data
    sdio_sdcard.o(i.SD_InitializeCards) refers to stm32f10x_sdio.o(i.SDIO_GetPowerState) for SDIO_GetPowerState
    sdio_sdcard.o(i.SD_InitializeCards) refers to stm32f10x_sdio.o(i.SDIO_SendCommand) for SDIO_SendCommand
    sdio_sdcard.o(i.SD_InitializeCards) refers to sdio_sdcard.o(i.CmdResp2Error) for CmdResp2Error
    sdio_sdcard.o(i.SD_InitializeCards) refers to sdio_sdcard.o(i.CmdResp6Error) for CmdResp6Error
    sdio_sdcard.o(i.SD_InitializeCards) refers to sdio_sdcard.o(.data) for .data
    sdio_sdcard.o(i.SD_InitializeCards) refers to sdio_sdcard.o(.bss) for .bss
    sdio_sdcard.o(i.SD_PowerOFF) refers to stm32f10x_sdio.o(i.SDIO_SetPowerState) for SDIO_SetPowerState
    sdio_sdcard.o(i.SD_PowerON) refers to stm32f10x_sdio.o(i.SDIO_Init) for SDIO_Init
    sdio_sdcard.o(i.SD_PowerON) refers to stm32f10x_sdio.o(i.SDIO_SetPowerState) for SDIO_SetPowerState
    sdio_sdcard.o(i.SD_PowerON) refers to stm32f10x_sdio.o(i.SDIO_ClockCmd) for SDIO_ClockCmd
    sdio_sdcard.o(i.SD_PowerON) refers to stm32f10x_sdio.o(i.SDIO_SendCommand) for SDIO_SendCommand
    sdio_sdcard.o(i.SD_PowerON) refers to sdio_sdcard.o(i.CmdError) for CmdError
    sdio_sdcard.o(i.SD_PowerON) refers to sdio_sdcard.o(i.CmdResp7Error) for CmdResp7Error
    sdio_sdcard.o(i.SD_PowerON) refers to sdio_sdcard.o(i.CmdResp1Error) for CmdResp1Error
    sdio_sdcard.o(i.SD_PowerON) refers to sdio_sdcard.o(i.CmdResp3Error) for CmdResp3Error
    sdio_sdcard.o(i.SD_PowerON) refers to sdio_sdcard.o(.bss) for .bss
    sdio_sdcard.o(i.SD_PowerON) refers to sdio_sdcard.o(.data) for .data
    sdio_sdcard.o(i.SD_ProcessIRQSrc) refers to stm32f10x_sdio.o(i.SDIO_SendCommand) for SDIO_SendCommand
    sdio_sdcard.o(i.SD_ProcessIRQSrc) refers to sdio_sdcard.o(i.CmdResp1Error) for CmdResp1Error
    sdio_sdcard.o(i.SD_ProcessIRQSrc) refers to stm32f10x_sdio.o(i.SDIO_GetFlagStatus) for SDIO_GetFlagStatus
    sdio_sdcard.o(i.SD_ProcessIRQSrc) refers to stm32f10x_sdio.o(i.SDIO_ClearFlag) for SDIO_ClearFlag
    sdio_sdcard.o(i.SD_ProcessIRQSrc) refers to sdio_sdcard.o(.data) for .data
    sdio_sdcard.o(i.SD_ProcessIRQSrc) refers to sdio_sdcard.o(.bss) for .bss
    sdio_sdcard.o(i.SD_ReadBlock) refers to stm32f10x_sdio.o(i.SDIO_DataConfig) for SDIO_DataConfig
    sdio_sdcard.o(i.SD_ReadBlock) refers to sdio_sdcard.o(i.convert_from_bytes_to_power_of_two) for convert_from_bytes_to_power_of_two
    sdio_sdcard.o(i.SD_ReadBlock) refers to stm32f10x_sdio.o(i.SDIO_SendCommand) for SDIO_SendCommand
    sdio_sdcard.o(i.SD_ReadBlock) refers to sdio_sdcard.o(i.CmdResp1Error) for CmdResp1Error
    sdio_sdcard.o(i.SD_ReadBlock) refers to sys.o(i.INTX_DISABLE) for INTX_DISABLE
    sdio_sdcard.o(i.SD_ReadBlock) refers to stm32f10x_sdio.o(i.SDIO_GetFlagStatus) for SDIO_GetFlagStatus
    sdio_sdcard.o(i.SD_ReadBlock) refers to stm32f10x_sdio.o(i.SDIO_ClearFlag) for SDIO_ClearFlag
    sdio_sdcard.o(i.SD_ReadBlock) refers to stm32f10x_sdio.o(i.SDIO_ReadData) for SDIO_ReadData
    sdio_sdcard.o(i.SD_ReadBlock) refers to sys.o(i.INTX_ENABLE) for INTX_ENABLE
    sdio_sdcard.o(i.SD_ReadBlock) refers to sdio_sdcard.o(i.SD_DMA_Config) for SD_DMA_Config
    sdio_sdcard.o(i.SD_ReadBlock) refers to stm32f10x_sdio.o(i.SDIO_DMACmd) for SDIO_DMACmd
    sdio_sdcard.o(i.SD_ReadBlock) refers to sdio_sdcard.o(.data) for .data
    sdio_sdcard.o(i.SD_ReadBlock) refers to sdio_sdcard.o(.bss) for .bss
    sdio_sdcard.o(i.SD_ReadDisk) refers to sdio_sdcard.o(i.SD_ReadBlock) for SD_ReadBlock
    sdio_sdcard.o(i.SD_ReadDisk) refers to rt_memcpy_v6.o(.text) for __aeabi_memcpy
    sdio_sdcard.o(i.SD_ReadDisk) refers to sdio_sdcard.o(i.SD_ReadMultiBlocks) for SD_ReadMultiBlocks
    sdio_sdcard.o(i.SD_ReadDisk) refers to sdio_sdcard.o(.bss) for .bss
    sdio_sdcard.o(i.SD_ReadMultiBlocks) refers to stm32f10x_sdio.o(i.SDIO_DataConfig) for SDIO_DataConfig
    sdio_sdcard.o(i.SD_ReadMultiBlocks) refers to sdio_sdcard.o(i.convert_from_bytes_to_power_of_two) for convert_from_bytes_to_power_of_two
    sdio_sdcard.o(i.SD_ReadMultiBlocks) refers to stm32f10x_sdio.o(i.SDIO_SendCommand) for SDIO_SendCommand
    sdio_sdcard.o(i.SD_ReadMultiBlocks) refers to sdio_sdcard.o(i.CmdResp1Error) for CmdResp1Error
    sdio_sdcard.o(i.SD_ReadMultiBlocks) refers to sys.o(i.INTX_DISABLE) for INTX_DISABLE
    sdio_sdcard.o(i.SD_ReadMultiBlocks) refers to stm32f10x_sdio.o(i.SDIO_GetFlagStatus) for SDIO_GetFlagStatus
    sdio_sdcard.o(i.SD_ReadMultiBlocks) refers to stm32f10x_sdio.o(i.SDIO_ClearFlag) for SDIO_ClearFlag
    sdio_sdcard.o(i.SD_ReadMultiBlocks) refers to stm32f10x_sdio.o(i.SDIO_ReadData) for SDIO_ReadData
    sdio_sdcard.o(i.SD_ReadMultiBlocks) refers to sys.o(i.INTX_ENABLE) for INTX_ENABLE
    sdio_sdcard.o(i.SD_ReadMultiBlocks) refers to sdio_sdcard.o(i.SD_DMA_Config) for SD_DMA_Config
    sdio_sdcard.o(i.SD_ReadMultiBlocks) refers to sdio_sdcard.o(.data) for .data
    sdio_sdcard.o(i.SD_ReadMultiBlocks) refers to sdio_sdcard.o(.bss) for .bss
    sdio_sdcard.o(i.SD_SelectDeselect) refers to stm32f10x_sdio.o(i.SDIO_SendCommand) for SDIO_SendCommand
    sdio_sdcard.o(i.SD_SelectDeselect) refers to sdio_sdcard.o(i.CmdResp1Error) for CmdResp1Error
    sdio_sdcard.o(i.SD_SelectDeselect) refers to sdio_sdcard.o(.bss) for .bss
    sdio_sdcard.o(i.SD_SendStatus) refers to stm32f10x_sdio.o(i.SDIO_SendCommand) for SDIO_SendCommand
    sdio_sdcard.o(i.SD_SendStatus) refers to sdio_sdcard.o(i.CmdResp1Error) for CmdResp1Error
    sdio_sdcard.o(i.SD_SendStatus) refers to sdio_sdcard.o(.data) for .data
    sdio_sdcard.o(i.SD_SendStatus) refers to sdio_sdcard.o(.bss) for .bss
    sdio_sdcard.o(i.SD_SetDeviceMode) refers to sdio_sdcard.o(.data) for .data
    sdio_sdcard.o(i.SD_WriteBlock) refers to stm32f10x_sdio.o(i.SDIO_DataConfig) for SDIO_DataConfig
    sdio_sdcard.o(i.SD_WriteBlock) refers to sdio_sdcard.o(i.convert_from_bytes_to_power_of_two) for convert_from_bytes_to_power_of_two
    sdio_sdcard.o(i.SD_WriteBlock) refers to stm32f10x_sdio.o(i.SDIO_SendCommand) for SDIO_SendCommand
    sdio_sdcard.o(i.SD_WriteBlock) refers to sdio_sdcard.o(i.CmdResp1Error) for CmdResp1Error
    sdio_sdcard.o(i.SD_WriteBlock) refers to sys.o(i.INTX_DISABLE) for INTX_DISABLE
    sdio_sdcard.o(i.SD_WriteBlock) refers to stm32f10x_sdio.o(i.SDIO_GetFlagStatus) for SDIO_GetFlagStatus
    sdio_sdcard.o(i.SD_WriteBlock) refers to stm32f10x_sdio.o(i.SDIO_WriteData) for SDIO_WriteData
    sdio_sdcard.o(i.SD_WriteBlock) refers to stm32f10x_sdio.o(i.SDIO_ClearFlag) for SDIO_ClearFlag
    sdio_sdcard.o(i.SD_WriteBlock) refers to sys.o(i.INTX_ENABLE) for INTX_ENABLE
    sdio_sdcard.o(i.SD_WriteBlock) refers to sdio_sdcard.o(i.SD_DMA_Config) for SD_DMA_Config
    sdio_sdcard.o(i.SD_WriteBlock) refers to sdio_sdcard.o(i.SD_Init) for SD_Init
    sdio_sdcard.o(i.SD_WriteBlock) refers to sdio_sdcard.o(i.IsCardProgramming) for IsCardProgramming
    sdio_sdcard.o(i.SD_WriteBlock) refers to sdio_sdcard.o(.bss) for .bss
    sdio_sdcard.o(i.SD_WriteBlock) refers to sdio_sdcard.o(.data) for .data
    sdio_sdcard.o(i.SD_WriteDisk) refers to rt_memcpy_v6.o(.text) for __aeabi_memcpy
    sdio_sdcard.o(i.SD_WriteDisk) refers to sdio_sdcard.o(i.SD_WriteBlock) for SD_WriteBlock
    sdio_sdcard.o(i.SD_WriteDisk) refers to sdio_sdcard.o(i.SD_WriteMultiBlocks) for SD_WriteMultiBlocks
    sdio_sdcard.o(i.SD_WriteDisk) refers to sdio_sdcard.o(.bss) for .bss
    sdio_sdcard.o(i.SD_WriteMultiBlocks) refers to stm32f10x_sdio.o(i.SDIO_DataConfig) for SDIO_DataConfig
    sdio_sdcard.o(i.SD_WriteMultiBlocks) refers to sdio_sdcard.o(i.convert_from_bytes_to_power_of_two) for convert_from_bytes_to_power_of_two
    sdio_sdcard.o(i.SD_WriteMultiBlocks) refers to stm32f10x_sdio.o(i.SDIO_SendCommand) for SDIO_SendCommand
    sdio_sdcard.o(i.SD_WriteMultiBlocks) refers to sdio_sdcard.o(i.CmdResp1Error) for CmdResp1Error
    sdio_sdcard.o(i.SD_WriteMultiBlocks) refers to sys.o(i.INTX_DISABLE) for INTX_DISABLE
    sdio_sdcard.o(i.SD_WriteMultiBlocks) refers to stm32f10x_sdio.o(i.SDIO_WriteData) for SDIO_WriteData
    sdio_sdcard.o(i.SD_WriteMultiBlocks) refers to stm32f10x_sdio.o(i.SDIO_GetFlagStatus) for SDIO_GetFlagStatus
    sdio_sdcard.o(i.SD_WriteMultiBlocks) refers to stm32f10x_sdio.o(i.SDIO_ClearFlag) for SDIO_ClearFlag
    sdio_sdcard.o(i.SD_WriteMultiBlocks) refers to sys.o(i.INTX_ENABLE) for INTX_ENABLE
    sdio_sdcard.o(i.SD_WriteMultiBlocks) refers to sdio_sdcard.o(i.SD_DMA_Config) for SD_DMA_Config
    sdio_sdcard.o(i.SD_WriteMultiBlocks) refers to sdio_sdcard.o(i.SD_Init) for SD_Init
    sdio_sdcard.o(i.SD_WriteMultiBlocks) refers to sdio_sdcard.o(i.IsCardProgramming) for IsCardProgramming
    sdio_sdcard.o(i.SD_WriteMultiBlocks) refers to sdio_sdcard.o(.bss) for .bss
    sdio_sdcard.o(i.SD_WriteMultiBlocks) refers to sdio_sdcard.o(.data) for .data
    beep.o(i.BEEP_Init) refers to stm32f10x_rcc.o(i.RCC_APB2PeriphClockCmd) for RCC_APB2PeriphClockCmd
    beep.o(i.BEEP_Init) refers to stm32f10x_gpio.o(i.GPIO_Init) for GPIO_Init
    beep.o(i.BEEP_Init) refers to stm32f10x_gpio.o(i.GPIO_ResetBits) for GPIO_ResetBits
    timer.o(i.TIM6_IRQHandler) refers to _printf_percent.o(.ARM.Collect$$_printf_percent$$00000000) for _printf_percent
    timer.o(i.TIM6_IRQHandler) refers to _printf_d.o(.ARM.Collect$$_printf_percent$$00000009) for _printf_d
    timer.o(i.TIM6_IRQHandler) refers to _printf_dec.o(.text) for _printf_int_dec
    timer.o(i.TIM6_IRQHandler) refers to stm32f10x_tim.o(i.TIM_GetITStatus) for TIM_GetITStatus
    timer.o(i.TIM6_IRQHandler) refers to noretval__2printf.o(.text) for __2printf
    timer.o(i.TIM6_IRQHandler) refers to stm32f10x_tim.o(i.TIM_ClearITPendingBit) for TIM_ClearITPendingBit
    timer.o(i.TIM6_IRQHandler) refers to timer.o(.data) for .data
    timer.o(i.TIM6_Int_Init) refers to stm32f10x_rcc.o(i.RCC_APB1PeriphClockCmd) for RCC_APB1PeriphClockCmd
    timer.o(i.TIM6_Int_Init) refers to stm32f10x_tim.o(i.TIM_TimeBaseInit) for TIM_TimeBaseInit
    timer.o(i.TIM6_Int_Init) refers to stm32f10x_tim.o(i.TIM_ITConfig) for TIM_ITConfig
    timer.o(i.TIM6_Int_Init) refers to stm32f10x_tim.o(i.TIM_Cmd) for TIM_Cmd
    timer.o(i.TIM6_Int_Init) refers to misc.o(i.NVIC_Init) for NVIC_Init
    tpad.o(i.TIM5_CH2_Cap_Init) refers to stm32f10x_rcc.o(i.RCC_APB1PeriphClockCmd) for RCC_APB1PeriphClockCmd
    tpad.o(i.TIM5_CH2_Cap_Init) refers to stm32f10x_rcc.o(i.RCC_APB2PeriphClockCmd) for RCC_APB2PeriphClockCmd
    tpad.o(i.TIM5_CH2_Cap_Init) refers to stm32f10x_gpio.o(i.GPIO_Init) for GPIO_Init
    tpad.o(i.TIM5_CH2_Cap_Init) refers to stm32f10x_tim.o(i.TIM_TimeBaseInit) for TIM_TimeBaseInit
    tpad.o(i.TIM5_CH2_Cap_Init) refers to stm32f10x_tim.o(i.TIM_ICInit) for TIM_ICInit
    tpad.o(i.TIM5_CH2_Cap_Init) refers to stm32f10x_tim.o(i.TIM_Cmd) for TIM_Cmd
    tpad.o(i.TPAD_Get_MaxVal) refers to tpad.o(i.TPAD_Get_Val) for TPAD_Get_Val
    tpad.o(i.TPAD_Get_Val) refers to tpad.o(i.TPAD_Reset) for TPAD_Reset
    tpad.o(i.TPAD_Get_Val) refers to stm32f10x_tim.o(i.TIM_GetCounter) for TIM_GetCounter
    tpad.o(i.TPAD_Get_Val) refers to stm32f10x_tim.o(i.TIM_GetFlagStatus) for TIM_GetFlagStatus
    tpad.o(i.TPAD_Get_Val) refers to stm32f10x_tim.o(i.TIM_GetCapture2) for TIM_GetCapture2
    tpad.o(i.TPAD_Init) refers to _printf_percent.o(.ARM.Collect$$_printf_percent$$00000000) for _printf_percent
    tpad.o(i.TPAD_Init) refers to _printf_d.o(.ARM.Collect$$_printf_percent$$00000009) for _printf_d
    tpad.o(i.TPAD_Init) refers to _printf_dec.o(.text) for _printf_int_dec
    tpad.o(i.TPAD_Init) refers to tpad.o(i.TIM5_CH2_Cap_Init) for TIM5_CH2_Cap_Init
    tpad.o(i.TPAD_Init) refers to tpad.o(i.TPAD_Get_Val) for TPAD_Get_Val
    tpad.o(i.TPAD_Init) refers to delay.o(i.delay_ms) for delay_ms
    tpad.o(i.TPAD_Init) refers to noretval__2printf.o(.text) for __2printf
    tpad.o(i.TPAD_Init) refers to tpad.o(.data) for .data
    tpad.o(i.TPAD_Reset) refers to stm32f10x_rcc.o(i.RCC_APB2PeriphClockCmd) for RCC_APB2PeriphClockCmd
    tpad.o(i.TPAD_Reset) refers to stm32f10x_gpio.o(i.GPIO_Init) for GPIO_Init
    tpad.o(i.TPAD_Reset) refers to stm32f10x_gpio.o(i.GPIO_ResetBits) for GPIO_ResetBits
    tpad.o(i.TPAD_Reset) refers to delay.o(i.delay_ms) for delay_ms
    tpad.o(i.TPAD_Reset) refers to stm32f10x_tim.o(i.TIM_SetCounter) for TIM_SetCounter
    tpad.o(i.TPAD_Reset) refers to stm32f10x_tim.o(i.TIM_ClearITPendingBit) for TIM_ClearITPendingBit
    tpad.o(i.TPAD_Scan) refers to tpad.o(i.TPAD_Get_MaxVal) for TPAD_Get_MaxVal
    tpad.o(i.TPAD_Scan) refers to tpad.o(.data) for .data
    dma.o(i.MYDMA_SRAMLCD_Enable) refers to stm32f10x_dma.o(i.DMA_Cmd) for DMA_Cmd
    dma.o(i.MYDMA_SRAMLCD_Enable) refers to stm32f10x_dma.o(i.DMA_SetCurrDataCounter) for DMA_SetCurrDataCounter
    dma.o(i.MYDMA_SRAMLCD_Enable) refers to lcd.o(.bss) for lcddev
    dma.o(i.MYDMA_SRAMLCD_Init) refers to stm32f10x_rcc.o(i.RCC_AHBPeriphClockCmd) for RCC_AHBPeriphClockCmd
    dma.o(i.MYDMA_SRAMLCD_Init) refers to stm32f10x_dma.o(i.DMA_DeInit) for DMA_DeInit
    dma.o(i.MYDMA_SRAMLCD_Init) refers to stm32f10x_dma.o(i.DMA_Init) for DMA_Init
    ov2640.o(i.OV2640_Auto_Exposure) refers to sccb.o(i.SCCB_WR_Reg) for SCCB_WR_Reg
    ov2640.o(i.OV2640_Auto_Exposure) refers to ov2640.o(.constdata) for .constdata
    ov2640.o(i.OV2640_Brightness) refers to sccb.o(i.SCCB_WR_Reg) for SCCB_WR_Reg
    ov2640.o(i.OV2640_Color_Bar) refers to sccb.o(i.SCCB_WR_Reg) for SCCB_WR_Reg
    ov2640.o(i.OV2640_Color_Bar) refers to sccb.o(i.SCCB_RD_Reg) for SCCB_RD_Reg
    ov2640.o(i.OV2640_Color_Saturation) refers to sccb.o(i.SCCB_WR_Reg) for SCCB_WR_Reg
    ov2640.o(i.OV2640_Contrast) refers to sccb.o(i.SCCB_WR_Reg) for SCCB_WR_Reg
    ov2640.o(i.OV2640_ImageSize_Set) refers to sccb.o(i.SCCB_WR_Reg) for SCCB_WR_Reg
    ov2640.o(i.OV2640_ImageWin_Set) refers to sccb.o(i.SCCB_WR_Reg) for SCCB_WR_Reg
    ov2640.o(i.OV2640_Init) refers to _printf_percent.o(.ARM.Collect$$_printf_percent$$00000000) for _printf_percent
    ov2640.o(i.OV2640_Init) refers to _printf_d.o(.ARM.Collect$$_printf_percent$$00000009) for _printf_d
    ov2640.o(i.OV2640_Init) refers to _printf_dec.o(.text) for _printf_int_dec
    ov2640.o(i.OV2640_Init) refers to stm32f10x_rcc.o(i.RCC_APB2PeriphClockCmd) for RCC_APB2PeriphClockCmd
    ov2640.o(i.OV2640_Init) refers to stm32f10x_gpio.o(i.GPIO_Init) for GPIO_Init
    ov2640.o(i.OV2640_Init) refers to stm32f10x_gpio.o(i.GPIO_SetBits) for GPIO_SetBits
    ov2640.o(i.OV2640_Init) refers to stm32f10x_gpio.o(i.GPIO_PinRemapConfig) for GPIO_PinRemapConfig
    ov2640.o(i.OV2640_Init) refers to delay.o(i.delay_ms) for delay_ms
    ov2640.o(i.OV2640_Init) refers to sccb.o(i.SCCB_Init) for SCCB_Init
    ov2640.o(i.OV2640_Init) refers to sccb.o(i.SCCB_WR_Reg) for SCCB_WR_Reg
    ov2640.o(i.OV2640_Init) refers to sccb.o(i.SCCB_RD_Reg) for SCCB_RD_Reg
    ov2640.o(i.OV2640_Init) refers to noretval__2printf.o(.text) for __2printf
    ov2640.o(i.OV2640_Init) refers to ov2640.o(.constdata) for .constdata
    ov2640.o(i.OV2640_JPEG_Mode) refers to sccb.o(i.SCCB_WR_Reg) for SCCB_WR_Reg
    ov2640.o(i.OV2640_JPEG_Mode) refers to ov2640.o(.constdata) for .constdata
    ov2640.o(i.OV2640_Light_Mode) refers to sccb.o(i.SCCB_WR_Reg) for SCCB_WR_Reg
    ov2640.o(i.OV2640_OutSize_Set) refers to sccb.o(i.SCCB_WR_Reg) for SCCB_WR_Reg
    ov2640.o(i.OV2640_RGB565_Mode) refers to sccb.o(i.SCCB_WR_Reg) for SCCB_WR_Reg
    ov2640.o(i.OV2640_RGB565_Mode) refers to ov2640.o(.constdata) for .constdata
    ov2640.o(i.OV2640_Special_Effects) refers to sccb.o(i.SCCB_WR_Reg) for SCCB_WR_Reg
    ov2640.o(i.OV2640_Window_Set) refers to sccb.o(i.SCCB_WR_Reg) for SCCB_WR_Reg
    ov2640.o(i.OV2640_Window_Set) refers to sccb.o(i.SCCB_RD_Reg) for SCCB_RD_Reg
    sccb.o(i.SCCB_Init) refers to stm32f10x_rcc.o(i.RCC_APB2PeriphClockCmd) for RCC_APB2PeriphClockCmd
    sccb.o(i.SCCB_Init) refers to stm32f10x_gpio.o(i.GPIO_Init) for GPIO_Init
    sccb.o(i.SCCB_Init) refers to stm32f10x_gpio.o(i.GPIO_SetBits) for GPIO_SetBits
    sccb.o(i.SCCB_No_Ack) refers to delay.o(i.delay_us) for delay_us
    sccb.o(i.SCCB_RD_Byte) refers to delay.o(i.delay_us) for delay_us
    sccb.o(i.SCCB_RD_Reg) refers to sccb.o(i.SCCB_Start) for SCCB_Start
    sccb.o(i.SCCB_RD_Reg) refers to sccb.o(i.SCCB_WR_Byte) for SCCB_WR_Byte
    sccb.o(i.SCCB_RD_Reg) refers to delay.o(i.delay_us) for delay_us
    sccb.o(i.SCCB_RD_Reg) refers to sccb.o(i.SCCB_Stop) for SCCB_Stop
    sccb.o(i.SCCB_RD_Reg) refers to sccb.o(i.SCCB_RD_Byte) for SCCB_RD_Byte
    sccb.o(i.SCCB_RD_Reg) refers to sccb.o(i.SCCB_No_Ack) for SCCB_No_Ack
    sccb.o(i.SCCB_Start) refers to delay.o(i.delay_us) for delay_us
    sccb.o(i.SCCB_Stop) refers to delay.o(i.delay_us) for delay_us
    sccb.o(i.SCCB_WR_Byte) refers to delay.o(i.delay_us) for delay_us
    sccb.o(i.SCCB_WR_Reg) refers to sccb.o(i.SCCB_Start) for SCCB_Start
    sccb.o(i.SCCB_WR_Reg) refers to sccb.o(i.SCCB_WR_Byte) for SCCB_WR_Byte
    sccb.o(i.SCCB_WR_Reg) refers to delay.o(i.delay_us) for delay_us
    sccb.o(i.SCCB_WR_Reg) refers to sccb.o(i.SCCB_Stop) for SCCB_Stop
    oled.o(i.OLED_Clear) refers to oled.o(i.OLED_SetCursor) for OLED_SetCursor
    oled.o(i.OLED_Clear) refers to oled.o(i.OLED_WriteData) for OLED_WriteData
    oled.o(i.OLED_I2C_Init) refers to stm32f10x_rcc.o(i.RCC_APB2PeriphClockCmd) for RCC_APB2PeriphClockCmd
    oled.o(i.OLED_I2C_Init) refers to stm32f10x_gpio.o(i.GPIO_Init) for GPIO_Init
    oled.o(i.OLED_I2C_Init) refers to stm32f10x_gpio.o(i.GPIO_WriteBit) for GPIO_WriteBit
    oled.o(i.OLED_I2C_SendByte) refers to stm32f10x_gpio.o(i.GPIO_WriteBit) for GPIO_WriteBit
    oled.o(i.OLED_I2C_Start) refers to stm32f10x_gpio.o(i.GPIO_WriteBit) for GPIO_WriteBit
    oled.o(i.OLED_I2C_Stop) refers to stm32f10x_gpio.o(i.GPIO_WriteBit) for GPIO_WriteBit
    oled.o(i.OLED_Init) refers to oled.o(i.OLED_I2C_Init) for OLED_I2C_Init
    oled.o(i.OLED_Init) refers to oled.o(i.OLED_WriteCommand) for OLED_WriteCommand
    oled.o(i.OLED_Init) refers to oled.o(i.OLED_Clear) for OLED_Clear
    oled.o(i.OLED_SetCursor) refers to oled.o(i.OLED_WriteCommand) for OLED_WriteCommand
    oled.o(i.OLED_ShowBinNum) refers to oled.o(i.OLED_Pow) for OLED_Pow
    oled.o(i.OLED_ShowBinNum) refers to oled.o(i.OLED_ShowChar) for OLED_ShowChar
    oled.o(i.OLED_ShowChar) refers to oled.o(i.OLED_SetCursor) for OLED_SetCursor
    oled.o(i.OLED_ShowChar) refers to oled.o(i.OLED_WriteData) for OLED_WriteData
    oled.o(i.OLED_ShowChar) refers to oled.o(.constdata) for .constdata
    oled.o(i.OLED_ShowHexNum) refers to oled.o(i.OLED_Pow) for OLED_Pow
    oled.o(i.OLED_ShowHexNum) refers to oled.o(i.OLED_ShowChar) for OLED_ShowChar
    oled.o(i.OLED_ShowNum) refers to oled.o(i.OLED_Pow) for OLED_Pow
    oled.o(i.OLED_ShowNum) refers to oled.o(i.OLED_ShowChar) for OLED_ShowChar
    oled.o(i.OLED_ShowSignedNum) refers to oled.o(i.OLED_ShowChar) for OLED_ShowChar
    oled.o(i.OLED_ShowSignedNum) refers to oled.o(i.OLED_Pow) for OLED_Pow
    oled.o(i.OLED_ShowString) refers to oled.o(i.OLED_ShowChar) for OLED_ShowChar
    oled.o(i.OLED_WriteCommand) refers to oled.o(i.OLED_I2C_Start) for OLED_I2C_Start
    oled.o(i.OLED_WriteCommand) refers to oled.o(i.OLED_I2C_SendByte) for OLED_I2C_SendByte
    oled.o(i.OLED_WriteCommand) refers to oled.o(i.OLED_I2C_Stop) for OLED_I2C_Stop
    oled.o(i.OLED_WriteData) refers to oled.o(i.OLED_I2C_Start) for OLED_I2C_Start
    oled.o(i.OLED_WriteData) refers to oled.o(i.OLED_I2C_SendByte) for OLED_I2C_SendByte
    oled.o(i.OLED_WriteData) refers to oled.o(i.OLED_I2C_Stop) for OLED_I2C_Stop
    ds18b20.o(i.DS18B20_Get_Temp) refers to ds18b20.o(i.DS18B20_Rst) for DS18B20_Rst
    ds18b20.o(i.DS18B20_Get_Temp) refers to ds18b20.o(i.DS18B20_Presence) for DS18B20_Presence
    ds18b20.o(i.DS18B20_Get_Temp) refers to ds18b20.o(i.DS18B20_Write_Byte) for DS18B20_Write_Byte
    ds18b20.o(i.DS18B20_Get_Temp) refers to ds18b20.o(i.DS18B20_Read_Byte) for DS18B20_Read_Byte
    ds18b20.o(i.DS18B20_Get_Temp) refers to dflt_clz.o(x$fpl$dflt) for __aeabi_i2d
    ds18b20.o(i.DS18B20_Get_Temp) refers to scalbn.o(x$fpl$scalbn) for __ARM_scalbn
    ds18b20.o(i.DS18B20_Get_Temp) refers to dmul.o(x$fpl$dmul) for __aeabi_dmul
    ds18b20.o(i.DS18B20_Get_Temp) refers to d2f.o(x$fpl$d2f) for __aeabi_d2f
    ds18b20.o(i.DS18B20_Init) refers to stm32f10x_rcc.o(i.RCC_APB2PeriphClockCmd) for RCC_APB2PeriphClockCmd
    ds18b20.o(i.DS18B20_Init) refers to stm32f10x_gpio.o(i.GPIO_Init) for GPIO_Init
    ds18b20.o(i.DS18B20_Init) refers to stm32f10x_gpio.o(i.GPIO_SetBits) for GPIO_SetBits
    ds18b20.o(i.DS18B20_Init) refers to ds18b20.o(i.DS18B20_Rst) for DS18B20_Rst
    ds18b20.o(i.DS18B20_Init) refers to ds18b20.o(i.DS18B20_Presence) for DS18B20_Presence
    ds18b20.o(i.DS18B20_Mode_IPU) refers to stm32f10x_gpio.o(i.GPIO_Init) for GPIO_Init
    ds18b20.o(i.DS18B20_Mode_Out_PP) refers to stm32f10x_gpio.o(i.GPIO_Init) for GPIO_Init
    ds18b20.o(i.DS18B20_Presence) refers to ds18b20.o(i.DS18B20_Mode_IPU) for DS18B20_Mode_IPU
    ds18b20.o(i.DS18B20_Presence) refers to delay.o(i.delay_us) for delay_us
    ds18b20.o(i.DS18B20_Presence) refers to stm32f10x_gpio.o(i.GPIO_ReadInputDataBit) for GPIO_ReadInputDataBit
    ds18b20.o(i.DS18B20_Read_Byte) refers to ds18b20.o(i.DS18B20_Mode_Out_PP) for DS18B20_Mode_Out_PP
    ds18b20.o(i.DS18B20_Read_Byte) refers to stm32f10x_gpio.o(i.GPIO_ResetBits) for GPIO_ResetBits
    ds18b20.o(i.DS18B20_Read_Byte) refers to delay.o(i.delay_us) for delay_us
    ds18b20.o(i.DS18B20_Read_Byte) refers to ds18b20.o(i.DS18B20_Mode_IPU) for DS18B20_Mode_IPU
    ds18b20.o(i.DS18B20_Read_Byte) refers to stm32f10x_gpio.o(i.GPIO_ReadInputDataBit) for GPIO_ReadInputDataBit
    ds18b20.o(i.DS18B20_Rst) refers to ds18b20.o(i.DS18B20_Mode_Out_PP) for DS18B20_Mode_Out_PP
    ds18b20.o(i.DS18B20_Rst) refers to stm32f10x_gpio.o(i.GPIO_ResetBits) for GPIO_ResetBits
    ds18b20.o(i.DS18B20_Rst) refers to delay.o(i.delay_us) for delay_us
    ds18b20.o(i.DS18B20_Rst) refers to stm32f10x_gpio.o(i.GPIO_SetBits) for GPIO_SetBits
    ds18b20.o(i.DS18B20_Start) refers to ds18b20.o(i.DS18B20_Rst) for DS18B20_Rst
    ds18b20.o(i.DS18B20_Start) refers to ds18b20.o(i.DS18B20_Presence) for DS18B20_Presence
    ds18b20.o(i.DS18B20_Start) refers to ds18b20.o(i.DS18B20_Write_Byte) for DS18B20_Write_Byte
    ds18b20.o(i.DS18B20_Write_Byte) refers to ds18b20.o(i.DS18B20_Mode_Out_PP) for DS18B20_Mode_Out_PP
    ds18b20.o(i.DS18B20_Write_Byte) refers to stm32f10x_gpio.o(i.GPIO_ResetBits) for GPIO_ResetBits
    ds18b20.o(i.DS18B20_Write_Byte) refers to delay.o(i.delay_us) for delay_us
    ds18b20.o(i.DS18B20_Write_Byte) refers to stm32f10x_gpio.o(i.GPIO_SetBits) for GPIO_SetBits
    delay.o(i.delay_init) refers to misc.o(i.SysTick_CLKSourceConfig) for SysTick_CLKSourceConfig
    delay.o(i.delay_init) refers to system_stm32f10x.o(.data) for SystemCoreClock
    delay.o(i.delay_init) refers to delay.o(.data) for .data
    delay.o(i.delay_ms) refers to delay.o(.data) for .data
    delay.o(i.delay_us) refers to delay.o(.data) for .data
    usart.o(i.USART1_IRQHandler) refers (Special) to use_no_semi_2.o(.text) for __use_no_semihosting
    usart.o(i.USART1_IRQHandler) refers to stm32f10x_usart.o(i.USART_GetITStatus) for USART_GetITStatus
    usart.o(i.USART1_IRQHandler) refers to stm32f10x_usart.o(i.USART_ReceiveData) for USART_ReceiveData
    usart.o(i.USART1_IRQHandler) refers to usart.o(.data) for .data
    usart.o(i.USART1_IRQHandler) refers to usart.o(.bss) for .bss
    usart.o(i._sys_exit) refers (Special) to use_no_semi_2.o(.text) for __use_no_semihosting
    usart.o(i.fputc) refers (Special) to use_no_semi_2.o(.text) for __use_no_semihosting
    usart.o(i.uart_init) refers (Special) to use_no_semi_2.o(.text) for __use_no_semihosting
    usart.o(i.uart_init) refers to stm32f10x_rcc.o(i.RCC_APB2PeriphClockCmd) for RCC_APB2PeriphClockCmd
    usart.o(i.uart_init) refers to stm32f10x_gpio.o(i.GPIO_Init) for GPIO_Init
    usart.o(i.uart_init) refers to misc.o(i.NVIC_Init) for NVIC_Init
    usart.o(i.uart_init) refers to stm32f10x_usart.o(i.USART_Init) for USART_Init
    usart.o(i.uart_init) refers to stm32f10x_usart.o(i.USART_ITConfig) for USART_ITConfig
    usart.o(i.uart_init) refers to stm32f10x_usart.o(i.USART_Cmd) for USART_Cmd
    usart.o(.bss) refers (Special) to use_no_semi_2.o(.text) for __use_no_semihosting
    usart.o(.data) refers (Special) to use_no_semi_2.o(.text) for __use_no_semihosting
    usart.o(.data) refers (Special) to use_no_semi_2.o(.text) for __use_no_semihosting
    delay1.o(i.delay1_ms) refers to delay.o(i.delay_us) for delay_us
    bsp_usart1.o(i.USART1_Config) refers to stm32f10x_rcc.o(i.RCC_APB2PeriphClockCmd) for RCC_APB2PeriphClockCmd
    bsp_usart1.o(i.USART1_Config) refers to stm32f10x_gpio.o(i.GPIO_Init) for GPIO_Init
    bsp_usart1.o(i.USART1_Config) refers to stm32f10x_usart.o(i.USART_Init) for USART_Init
    bsp_usart1.o(i.USART1_Config) refers to stm32f10x_usart.o(i.USART_Cmd) for USART_Cmd
    startup_stm32f10x_hd.o(STACK) refers (Special) to heapauxi.o(.text) for __use_two_region_memory
    startup_stm32f10x_hd.o(HEAP) refers (Special) to heapauxi.o(.text) for __use_two_region_memory
    startup_stm32f10x_hd.o(RESET) refers (Special) to heapauxi.o(.text) for __use_two_region_memory
    startup_stm32f10x_hd.o(RESET) refers to startup_stm32f10x_hd.o(STACK) for __initial_sp
    startup_stm32f10x_hd.o(RESET) refers to startup_stm32f10x_hd.o(.text) for Reset_Handler
    startup_stm32f10x_hd.o(RESET) refers to stm32f10x_it.o(i.NMI_Handler) for NMI_Handler
    startup_stm32f10x_hd.o(RESET) refers to stm32f10x_it.o(i.HardFault_Handler) for HardFault_Handler
    startup_stm32f10x_hd.o(RESET) refers to stm32f10x_it.o(i.MemManage_Handler) for MemManage_Handler
    startup_stm32f10x_hd.o(RESET) refers to stm32f10x_it.o(i.BusFault_Handler) for BusFault_Handler
    startup_stm32f10x_hd.o(RESET) refers to stm32f10x_it.o(i.UsageFault_Handler) for UsageFault_Handler
    startup_stm32f10x_hd.o(RESET) refers to stm32f10x_it.o(i.SVC_Handler) for SVC_Handler
    startup_stm32f10x_hd.o(RESET) refers to stm32f10x_it.o(i.DebugMon_Handler) for DebugMon_Handler
    startup_stm32f10x_hd.o(RESET) refers to stm32f10x_it.o(i.PendSV_Handler) for PendSV_Handler
    startup_stm32f10x_hd.o(RESET) refers to stm32f10x_it.o(i.SysTick_Handler) for SysTick_Handler
    startup_stm32f10x_hd.o(RESET) refers to usmart.o(i.TIM4_IRQHandler) for TIM4_IRQHandler
    startup_stm32f10x_hd.o(RESET) refers to usart.o(i.USART1_IRQHandler) for USART1_IRQHandler
    startup_stm32f10x_hd.o(RESET) refers to sdio_sdcard.o(i.SDIO_IRQHandler) for SDIO_IRQHandler
    startup_stm32f10x_hd.o(RESET) refers to timer.o(i.TIM6_IRQHandler) for TIM6_IRQHandler
    startup_stm32f10x_hd.o(.text) refers (Special) to heapauxi.o(.text) for __use_two_region_memory
    startup_stm32f10x_hd.o(.text) refers to system_stm32f10x.o(i.SystemInit) for SystemInit
    startup_stm32f10x_hd.o(.text) refers to __main.o(!!!main) for __main
    startup_stm32f10x_hd.o(.text) refers to startup_stm32f10x_hd.o(HEAP) for Heap_Mem
    startup_stm32f10x_hd.o(.text) refers to startup_stm32f10x_hd.o(STACK) for Stack_Mem
    stm32f10x_gpio.o(i.GPIO_AFIODeInit) refers to stm32f10x_rcc.o(i.RCC_APB2PeriphResetCmd) for RCC_APB2PeriphResetCmd
    stm32f10x_gpio.o(i.GPIO_DeInit) refers to stm32f10x_rcc.o(i.RCC_APB2PeriphResetCmd) for RCC_APB2PeriphResetCmd
    stm32f10x_rcc.o(i.RCC_GetClocksFreq) refers to stm32f10x_rcc.o(.data) for .data
    stm32f10x_rcc.o(i.RCC_WaitForHSEStartUp) refers to stm32f10x_rcc.o(i.RCC_GetFlagStatus) for RCC_GetFlagStatus
    stm32f10x_spi.o(i.I2S_Init) refers to stm32f10x_rcc.o(i.RCC_GetClocksFreq) for RCC_GetClocksFreq
    stm32f10x_spi.o(i.SPI_I2S_DeInit) refers to stm32f10x_rcc.o(i.RCC_APB2PeriphResetCmd) for RCC_APB2PeriphResetCmd
    stm32f10x_spi.o(i.SPI_I2S_DeInit) refers to stm32f10x_rcc.o(i.RCC_APB1PeriphResetCmd) for RCC_APB1PeriphResetCmd
    stm32f10x_usart.o(i.USART_DeInit) refers to stm32f10x_rcc.o(i.RCC_APB2PeriphResetCmd) for RCC_APB2PeriphResetCmd
    stm32f10x_usart.o(i.USART_DeInit) refers to stm32f10x_rcc.o(i.RCC_APB1PeriphResetCmd) for RCC_APB1PeriphResetCmd
    stm32f10x_usart.o(i.USART_Init) refers to stm32f10x_rcc.o(i.RCC_GetClocksFreq) for RCC_GetClocksFreq
    stm32f10x_tim.o(i.TIM_DeInit) refers to stm32f10x_rcc.o(i.RCC_APB1PeriphResetCmd) for RCC_APB1PeriphResetCmd
    stm32f10x_tim.o(i.TIM_DeInit) refers to stm32f10x_rcc.o(i.RCC_APB2PeriphResetCmd) for RCC_APB2PeriphResetCmd
    stm32f10x_tim.o(i.TIM_ETRClockMode1Config) refers to stm32f10x_tim.o(i.TIM_ETRConfig) for TIM_ETRConfig
    stm32f10x_tim.o(i.TIM_ETRClockMode2Config) refers to stm32f10x_tim.o(i.TIM_ETRConfig) for TIM_ETRConfig
    stm32f10x_tim.o(i.TIM_ICInit) refers to stm32f10x_tim.o(i.TI1_Config) for TI1_Config
    stm32f10x_tim.o(i.TIM_ICInit) refers to stm32f10x_tim.o(i.TIM_SetIC1Prescaler) for TIM_SetIC1Prescaler
    stm32f10x_tim.o(i.TIM_ICInit) refers to stm32f10x_tim.o(i.TI2_Config) for TI2_Config
    stm32f10x_tim.o(i.TIM_ICInit) refers to stm32f10x_tim.o(i.TIM_SetIC2Prescaler) for TIM_SetIC2Prescaler
    stm32f10x_tim.o(i.TIM_ICInit) refers to stm32f10x_tim.o(i.TIM_SetIC3Prescaler) for TIM_SetIC3Prescaler
    stm32f10x_tim.o(i.TIM_ICInit) refers to stm32f10x_tim.o(i.TIM_SetIC4Prescaler) for TIM_SetIC4Prescaler
    stm32f10x_tim.o(i.TIM_ITRxExternalClockConfig) refers to stm32f10x_tim.o(i.TIM_SelectInputTrigger) for TIM_SelectInputTrigger
    stm32f10x_tim.o(i.TIM_PWMIConfig) refers to stm32f10x_tim.o(i.TI2_Config) for TI2_Config
    stm32f10x_tim.o(i.TIM_PWMIConfig) refers to stm32f10x_tim.o(i.TIM_SetIC2Prescaler) for TIM_SetIC2Prescaler
    stm32f10x_tim.o(i.TIM_PWMIConfig) refers to stm32f10x_tim.o(i.TI1_Config) for TI1_Config
    stm32f10x_tim.o(i.TIM_PWMIConfig) refers to stm32f10x_tim.o(i.TIM_SetIC1Prescaler) for TIM_SetIC1Prescaler
    stm32f10x_tim.o(i.TIM_TIxExternalClockConfig) refers to stm32f10x_tim.o(i.TI1_Config) for TI1_Config
    stm32f10x_tim.o(i.TIM_TIxExternalClockConfig) refers to stm32f10x_tim.o(i.TIM_SelectInputTrigger) for TIM_SelectInputTrigger
    stm32f10x_tim.o(i.TIM_TIxExternalClockConfig) refers to stm32f10x_tim.o(i.TI2_Config) for TI2_Config
    malloc.o(i.my_mem_free) refers to malloc.o(.data) for .data
    malloc.o(i.my_mem_free) refers to malloc.o(.constdata) for .constdata
    malloc.o(i.my_mem_init) refers to malloc.o(i.mymemset) for mymemset
    malloc.o(i.my_mem_init) refers to malloc.o(.constdata) for .constdata
    malloc.o(i.my_mem_init) refers to malloc.o(.data) for .data
    malloc.o(i.my_mem_malloc) refers to malloc.o(.data) for .data
    malloc.o(i.my_mem_malloc) refers to malloc.o(.constdata) for .constdata
    malloc.o(i.my_mem_perused) refers to malloc.o(.constdata) for .constdata
    malloc.o(i.my_mem_perused) refers to malloc.o(.data) for .data
    malloc.o(i.myfree) refers to malloc.o(i.my_mem_free) for my_mem_free
    malloc.o(i.myfree) refers to malloc.o(.data) for .data
    malloc.o(i.mymalloc) refers to malloc.o(i.my_mem_malloc) for my_mem_malloc
    malloc.o(i.mymalloc) refers to malloc.o(.data) for .data
    malloc.o(i.myrealloc) refers to malloc.o(i.my_mem_malloc) for my_mem_malloc
    malloc.o(i.myrealloc) refers to malloc.o(i.mymemcpy) for mymemcpy
    malloc.o(i.myrealloc) refers to malloc.o(i.myfree) for myfree
    malloc.o(i.myrealloc) refers to malloc.o(.data) for .data
    malloc.o(.data) refers to malloc.o(i.my_mem_init) for my_mem_init
    malloc.o(.data) refers to malloc.o(i.my_mem_perused) for my_mem_perused
    malloc.o(.data) refers to malloc.o(.bss) for mem1base
    malloc.o(.data) refers to malloc.o(.ARM.__AT_0x68000000) for mem2base
    malloc.o(.data) refers to malloc.o(.bss) for mem1mapbase
    malloc.o(.data) refers to malloc.o(.ARM.__AT_0x68000020) for mem2mapbase
    diskio.o(i.disk_initialize) refers to sdio_sdcard.o(i.SD_Init) for SD_Init
    diskio.o(i.disk_initialize) refers to w25qxx.o(i.W25QXX_Init) for W25QXX_Init
    diskio.o(i.disk_initialize) refers to diskio.o(.data) for .data
    diskio.o(i.disk_ioctl) refers to llsdiv.o(.text) for __aeabi_ldivmod
    diskio.o(i.disk_ioctl) refers to sdio_sdcard.o(.bss) for SDCardInfo
    diskio.o(i.disk_ioctl) refers to diskio.o(.data) for .data
    diskio.o(i.disk_read) refers to sdio_sdcard.o(i.SD_ReadDisk) for SD_ReadDisk
    diskio.o(i.disk_read) refers to sdio_sdcard.o(i.SD_Init) for SD_Init
    diskio.o(i.disk_read) refers to w25qxx.o(i.W25QXX_Read) for W25QXX_Read
    diskio.o(i.disk_write) refers to sdio_sdcard.o(i.SD_WriteDisk) for SD_WriteDisk
    diskio.o(i.disk_write) refers to sdio_sdcard.o(i.SD_Init) for SD_Init
    diskio.o(i.disk_write) refers to w25qxx.o(i.W25QXX_Write) for W25QXX_Write
    diskio.o(i.ff_memalloc) refers to malloc.o(i.mymalloc) for mymalloc
    diskio.o(i.ff_memfree) refers to malloc.o(i.myfree) for myfree
    ff.o(i.check_fs) refers to ff.o(i.move_window) for move_window
    ff.o(i.create_chain) refers to ff.o(i.get_fat) for get_fat
    ff.o(i.create_chain) refers to ff.o(i.put_fat) for put_fat
    ff.o(i.create_name) refers to mycc936.o(i.ff_convert) for ff_convert
    ff.o(i.create_name) refers to ff.o(i.chk_chr) for chk_chr
    ff.o(i.create_name) refers to ff.o(i.mem_set) for mem_set
    ff.o(i.create_name) refers to mycc936.o(i.ff_wtoupper) for ff_wtoupper
    ff.o(i.dir_alloc) refers to ff.o(i.dir_sdi) for dir_sdi
    ff.o(i.dir_alloc) refers to ff.o(i.move_window) for move_window
    ff.o(i.dir_alloc) refers to ff.o(i.dir_next) for dir_next
    ff.o(i.dir_find) refers to ff.o(i.dir_sdi) for dir_sdi
    ff.o(i.dir_find) refers to ff.o(i.move_window) for move_window
    ff.o(i.dir_find) refers to mycc936.o(i.ff_wtoupper) for ff_wtoupper
    ff.o(i.dir_find) refers to ff.o(i.sum_sfn) for sum_sfn
    ff.o(i.dir_find) refers to ff.o(i.dir_next) for dir_next
    ff.o(i.dir_find) refers to ff.o(.constdata) for .constdata
    ff.o(i.dir_next) refers to ff.o(i.get_fat) for get_fat
    ff.o(i.dir_next) refers to ff.o(i.create_chain) for create_chain
    ff.o(i.dir_next) refers to ff.o(i.sync_window) for sync_window
    ff.o(i.dir_next) refers to ff.o(i.mem_set) for mem_set
    ff.o(i.dir_next) refers to ff.o(i.clust2sect) for clust2sect
    ff.o(i.dir_read) refers to ff.o(i.move_window) for move_window
    ff.o(i.dir_read) refers to ff.o(i.dir_next) for dir_next
    ff.o(i.dir_read) refers to ff.o(i.sum_sfn) for sum_sfn
    ff.o(i.dir_read) refers to ff.o(.constdata) for .constdata
    ff.o(i.dir_register) refers to ff.o(i.mem_cpy) for mem_cpy
    ff.o(i.dir_register) refers to ff.o(i.gen_numname) for gen_numname
    ff.o(i.dir_register) refers to ff.o(i.dir_find) for dir_find
    ff.o(i.dir_register) refers to ff.o(i.dir_alloc) for dir_alloc
    ff.o(i.dir_register) refers to ff.o(i.dir_sdi) for dir_sdi
    ff.o(i.dir_register) refers to ff.o(i.sum_sfn) for sum_sfn
    ff.o(i.dir_register) refers to ff.o(i.move_window) for move_window
    ff.o(i.dir_register) refers to ff.o(i.dir_next) for dir_next
    ff.o(i.dir_register) refers to ff.o(i.mem_set) for mem_set
    ff.o(i.dir_register) refers to ff.o(.constdata) for .constdata
    ff.o(i.dir_remove) refers to ff.o(i.dir_sdi) for dir_sdi
    ff.o(i.dir_remove) refers to ff.o(i.move_window) for move_window
    ff.o(i.dir_remove) refers to ff.o(i.mem_set) for mem_set
    ff.o(i.dir_remove) refers to ff.o(i.dir_next) for dir_next
    ff.o(i.dir_sdi) refers to ff.o(i.get_fat) for get_fat
    ff.o(i.dir_sdi) refers to ff.o(i.clust2sect) for clust2sect
    ff.o(i.f_chmod) refers to ff.o(i.find_volume) for find_volume
    ff.o(i.f_chmod) refers to diskio.o(i.ff_memalloc) for ff_memalloc
    ff.o(i.f_chmod) refers to ff.o(i.follow_path) for follow_path
    ff.o(i.f_chmod) refers to diskio.o(i.ff_memfree) for ff_memfree
    ff.o(i.f_chmod) refers to ff.o(i.sync_fs) for sync_fs
    ff.o(i.f_close) refers to ff.o(i.f_sync) for f_sync
    ff.o(i.f_close) refers to ff.o(i.validate) for validate
    ff.o(i.f_closedir) refers to ff.o(i.validate) for validate
    ff.o(i.f_getfree) refers to ff.o(i.find_volume) for find_volume
    ff.o(i.f_getfree) refers to ff.o(i.get_fat) for get_fat
    ff.o(i.f_getfree) refers to ff.o(i.move_window) for move_window
    ff.o(i.f_getlabel) refers to ff.o(i.find_volume) for find_volume
    ff.o(i.f_getlabel) refers to ff.o(i.dir_sdi) for dir_sdi
    ff.o(i.f_getlabel) refers to ff.o(i.dir_read) for dir_read
    ff.o(i.f_getlabel) refers to ff.o(i.mem_cpy) for mem_cpy
    ff.o(i.f_getlabel) refers to ff.o(i.move_window) for move_window
    ff.o(i.f_gets) refers to ff.o(i.f_read) for f_read
    ff.o(i.f_lseek) refers to ff.o(i.validate) for validate
    ff.o(i.f_lseek) refers to ff.o(i.clmt_clust) for clmt_clust
    ff.o(i.f_lseek) refers to ff.o(i.clust2sect) for clust2sect
    ff.o(i.f_lseek) refers to diskio.o(i.disk_write) for disk_write
    ff.o(i.f_lseek) refers to ff.o(i.get_fat) for get_fat
    ff.o(i.f_lseek) refers to diskio.o(i.disk_read) for disk_read
    ff.o(i.f_lseek) refers to ff.o(i.create_chain) for create_chain
    ff.o(i.f_mkdir) refers to diskio.o(i.get_fattime) for get_fattime
    ff.o(i.f_mkdir) refers to ff.o(i.find_volume) for find_volume
    ff.o(i.f_mkdir) refers to diskio.o(i.ff_memalloc) for ff_memalloc
    ff.o(i.f_mkdir) refers to ff.o(i.follow_path) for follow_path
    ff.o(i.f_mkdir) refers to ff.o(i.create_chain) for create_chain
    ff.o(i.f_mkdir) refers to ff.o(i.sync_window) for sync_window
    ff.o(i.f_mkdir) refers to ff.o(i.clust2sect) for clust2sect
    ff.o(i.f_mkdir) refers to ff.o(i.mem_set) for mem_set
    ff.o(i.f_mkdir) refers to ff.o(i.st_clust) for st_clust
    ff.o(i.f_mkdir) refers to ff.o(i.mem_cpy) for mem_cpy
    ff.o(i.f_mkdir) refers to ff.o(i.dir_register) for dir_register
    ff.o(i.f_mkdir) refers to ff.o(i.remove_chain) for remove_chain
    ff.o(i.f_mkdir) refers to ff.o(i.sync_fs) for sync_fs
    ff.o(i.f_mkdir) refers to diskio.o(i.ff_memfree) for ff_memfree
    ff.o(i.f_mkfs) refers to ff.o(i.get_ldnumber) for get_ldnumber
    ff.o(i.f_mkfs) refers to diskio.o(i.disk_initialize) for disk_initialize
    ff.o(i.f_mkfs) refers to diskio.o(i.disk_ioctl) for disk_ioctl
    ff.o(i.f_mkfs) refers to ff.o(i.mem_set) for mem_set
    ff.o(i.f_mkfs) refers to diskio.o(i.disk_write) for disk_write
    ff.o(i.f_mkfs) refers to ff.o(i.mem_cpy) for mem_cpy
    ff.o(i.f_mkfs) refers to diskio.o(i.get_fattime) for get_fattime
    ff.o(i.f_mkfs) refers to ff.o(.data) for .data
    ff.o(i.f_mkfs) refers to ff.o(.constdata) for .constdata
    ff.o(i.f_mount) refers to ff.o(i.get_ldnumber) for get_ldnumber
    ff.o(i.f_mount) refers to ff.o(i.find_volume) for find_volume
    ff.o(i.f_mount) refers to ff.o(.data) for .data
    ff.o(i.f_open) refers to ff.o(i.find_volume) for find_volume
    ff.o(i.f_open) refers to diskio.o(i.ff_memalloc) for ff_memalloc
    ff.o(i.f_open) refers to ff.o(i.follow_path) for follow_path
    ff.o(i.f_open) refers to ff.o(i.dir_register) for dir_register
    ff.o(i.f_open) refers to diskio.o(i.get_fattime) for get_fattime
    ff.o(i.f_open) refers to ff.o(i.ld_clust) for ld_clust
    ff.o(i.f_open) refers to ff.o(i.st_clust) for st_clust
    ff.o(i.f_open) refers to ff.o(i.remove_chain) for remove_chain
    ff.o(i.f_open) refers to ff.o(i.move_window) for move_window
    ff.o(i.f_open) refers to diskio.o(i.ff_memfree) for ff_memfree
    ff.o(i.f_opendir) refers to ff.o(i.find_volume) for find_volume
    ff.o(i.f_opendir) refers to diskio.o(i.ff_memalloc) for ff_memalloc
    ff.o(i.f_opendir) refers to ff.o(i.follow_path) for follow_path
    ff.o(i.f_opendir) refers to diskio.o(i.ff_memfree) for ff_memfree
    ff.o(i.f_opendir) refers to ff.o(i.ld_clust) for ld_clust
    ff.o(i.f_opendir) refers to ff.o(i.dir_sdi) for dir_sdi
    ff.o(i.f_printf) refers to ff.o(i.putc_bfd) for putc_bfd
    ff.o(i.f_printf) refers to ff.o(i.f_write) for f_write
    ff.o(i.f_putc) refers to ff.o(i.putc_bfd) for putc_bfd
    ff.o(i.f_putc) refers to ff.o(i.f_write) for f_write
    ff.o(i.f_puts) refers to ff.o(i.putc_bfd) for putc_bfd
    ff.o(i.f_puts) refers to ff.o(i.f_write) for f_write
    ff.o(i.f_read) refers to ff.o(i.validate) for validate
    ff.o(i.f_read) refers to ff.o(i.clmt_clust) for clmt_clust
    ff.o(i.f_read) refers to ff.o(i.get_fat) for get_fat
    ff.o(i.f_read) refers to ff.o(i.clust2sect) for clust2sect
    ff.o(i.f_read) refers to diskio.o(i.disk_read) for disk_read
    ff.o(i.f_read) refers to ff.o(i.mem_cpy) for mem_cpy
    ff.o(i.f_read) refers to diskio.o(i.disk_write) for disk_write
    ff.o(i.f_readdir) refers to ff.o(i.validate) for validate
    ff.o(i.f_readdir) refers to diskio.o(i.ff_memalloc) for ff_memalloc
    ff.o(i.f_readdir) refers to ff.o(i.dir_read) for dir_read
    ff.o(i.f_readdir) refers to ff.o(i.dir_sdi) for dir_sdi
    ff.o(i.f_readdir) refers to ff.o(i.get_fileinfo) for get_fileinfo
    ff.o(i.f_readdir) refers to ff.o(i.dir_next) for dir_next
    ff.o(i.f_readdir) refers to diskio.o(i.ff_memfree) for ff_memfree
    ff.o(i.f_rename) refers to ff.o(i.find_volume) for find_volume
    ff.o(i.f_rename) refers to diskio.o(i.ff_memalloc) for ff_memalloc
    ff.o(i.f_rename) refers to ff.o(i.follow_path) for follow_path
    ff.o(i.f_rename) refers to ff.o(i.mem_cpy) for mem_cpy
    ff.o(i.f_rename) refers to ff.o(i.get_ldnumber) for get_ldnumber
    ff.o(i.f_rename) refers to ff.o(i.dir_register) for dir_register
    ff.o(i.f_rename) refers to ff.o(i.ld_clust) for ld_clust
    ff.o(i.f_rename) refers to ff.o(i.clust2sect) for clust2sect
    ff.o(i.f_rename) refers to ff.o(i.move_window) for move_window
    ff.o(i.f_rename) refers to ff.o(i.st_clust) for st_clust
    ff.o(i.f_rename) refers to ff.o(i.dir_remove) for dir_remove
    ff.o(i.f_rename) refers to ff.o(i.sync_fs) for sync_fs
    ff.o(i.f_rename) refers to diskio.o(i.ff_memfree) for ff_memfree
    ff.o(i.f_setlabel) refers to ff.o(i.find_volume) for find_volume
    ff.o(i.f_setlabel) refers to mycc936.o(i.ff_convert) for ff_convert
    ff.o(i.f_setlabel) refers to mycc936.o(i.ff_wtoupper) for ff_wtoupper
    ff.o(i.f_setlabel) refers to ff.o(i.chk_chr) for chk_chr
    ff.o(i.f_setlabel) refers to ff.o(i.dir_sdi) for dir_sdi
    ff.o(i.f_setlabel) refers to ff.o(i.dir_read) for dir_read
    ff.o(i.f_setlabel) refers to ff.o(i.dir_alloc) for dir_alloc
    ff.o(i.f_setlabel) refers to ff.o(i.mem_set) for mem_set
    ff.o(i.f_setlabel) refers to ff.o(i.mem_cpy) for mem_cpy
    ff.o(i.f_setlabel) refers to diskio.o(i.get_fattime) for get_fattime
    ff.o(i.f_setlabel) refers to ff.o(i.sync_fs) for sync_fs
    ff.o(i.f_stat) refers to ff.o(i.find_volume) for find_volume
    ff.o(i.f_stat) refers to diskio.o(i.ff_memalloc) for ff_memalloc
    ff.o(i.f_stat) refers to ff.o(i.follow_path) for follow_path
    ff.o(i.f_stat) refers to ff.o(i.get_fileinfo) for get_fileinfo
    ff.o(i.f_stat) refers to diskio.o(i.ff_memfree) for ff_memfree
    ff.o(i.f_sync) refers to ff.o(i.validate) for validate
    ff.o(i.f_sync) refers to diskio.o(i.disk_write) for disk_write
    ff.o(i.f_sync) refers to ff.o(i.move_window) for move_window
    ff.o(i.f_sync) refers to ff.o(i.st_clust) for st_clust
    ff.o(i.f_sync) refers to diskio.o(i.get_fattime) for get_fattime
    ff.o(i.f_sync) refers to ff.o(i.sync_fs) for sync_fs
    ff.o(i.f_truncate) refers to ff.o(i.validate) for validate
    ff.o(i.f_truncate) refers to ff.o(i.get_fat) for get_fat
    ff.o(i.f_truncate) refers to ff.o(i.remove_chain) for remove_chain
    ff.o(i.f_truncate) refers to ff.o(i.put_fat) for put_fat
    ff.o(i.f_truncate) refers to diskio.o(i.disk_write) for disk_write
    ff.o(i.f_unlink) refers to ff.o(i.find_volume) for find_volume
    ff.o(i.f_unlink) refers to diskio.o(i.ff_memalloc) for ff_memalloc
    ff.o(i.f_unlink) refers to ff.o(i.follow_path) for follow_path
    ff.o(i.f_unlink) refers to ff.o(i.ld_clust) for ld_clust
    ff.o(i.f_unlink) refers to ff.o(i.mem_cpy) for mem_cpy
    ff.o(i.f_unlink) refers to ff.o(i.dir_sdi) for dir_sdi
    ff.o(i.f_unlink) refers to ff.o(i.dir_read) for dir_read
    ff.o(i.f_unlink) refers to ff.o(i.dir_remove) for dir_remove
    ff.o(i.f_unlink) refers to ff.o(i.remove_chain) for remove_chain
    ff.o(i.f_unlink) refers to ff.o(i.sync_fs) for sync_fs
    ff.o(i.f_unlink) refers to diskio.o(i.ff_memfree) for ff_memfree
    ff.o(i.f_utime) refers to ff.o(i.find_volume) for find_volume
    ff.o(i.f_utime) refers to diskio.o(i.ff_memalloc) for ff_memalloc
    ff.o(i.f_utime) refers to ff.o(i.follow_path) for follow_path
    ff.o(i.f_utime) refers to diskio.o(i.ff_memfree) for ff_memfree
    ff.o(i.f_utime) refers to ff.o(i.sync_fs) for sync_fs
    ff.o(i.f_write) refers to ff.o(i.validate) for validate
    ff.o(i.f_write) refers to ff.o(i.clmt_clust) for clmt_clust
    ff.o(i.f_write) refers to ff.o(i.create_chain) for create_chain
    ff.o(i.f_write) refers to diskio.o(i.disk_write) for disk_write
    ff.o(i.f_write) refers to ff.o(i.clust2sect) for clust2sect
    ff.o(i.f_write) refers to ff.o(i.mem_cpy) for mem_cpy
    ff.o(i.f_write) refers to diskio.o(i.disk_read) for disk_read
    ff.o(i.find_volume) refers to ff.o(i.get_ldnumber) for get_ldnumber
    ff.o(i.find_volume) refers to diskio.o(i.disk_status) for disk_status
    ff.o(i.find_volume) refers to diskio.o(i.disk_initialize) for disk_initialize
    ff.o(i.find_volume) refers to ff.o(i.check_fs) for check_fs
    ff.o(i.find_volume) refers to ff.o(i.move_window) for move_window
    ff.o(i.find_volume) refers to ff.o(.data) for .data
    ff.o(i.follow_path) refers to ff.o(i.dir_sdi) for dir_sdi
    ff.o(i.follow_path) refers to ff.o(i.create_name) for create_name
    ff.o(i.follow_path) refers to ff.o(i.dir_find) for dir_find
    ff.o(i.follow_path) refers to ff.o(i.ld_clust) for ld_clust
    ff.o(i.gen_numname) refers to ff.o(i.mem_cpy) for mem_cpy
    ff.o(i.get_fat) refers to ff.o(i.move_window) for move_window
    ff.o(i.get_fileinfo) refers to mycc936.o(i.ff_convert) for ff_convert
    ff.o(i.move_window) refers to ff.o(i.sync_window) for sync_window
    ff.o(i.move_window) refers to diskio.o(i.disk_read) for disk_read
    ff.o(i.put_fat) refers to ff.o(i.move_window) for move_window
    ff.o(i.putc_bfd) refers to ff.o(i.f_write) for f_write
    ff.o(i.remove_chain) refers to ff.o(i.get_fat) for get_fat
    ff.o(i.remove_chain) refers to ff.o(i.put_fat) for put_fat
    ff.o(i.sync_fs) refers to ff.o(i.sync_window) for sync_window
    ff.o(i.sync_fs) refers to ff.o(i.mem_set) for mem_set
    ff.o(i.sync_fs) refers to diskio.o(i.disk_write) for disk_write
    ff.o(i.sync_fs) refers to diskio.o(i.disk_ioctl) for disk_ioctl
    ff.o(i.sync_window) refers to diskio.o(i.disk_write) for disk_write
    ff.o(i.validate) refers to diskio.o(i.disk_status) for disk_status
    exfuns.o(i.exf_getfree) refers to ff.o(i.f_getfree) for f_getfree
    exfuns.o(i.exfuns_init) refers to malloc.o(i.mymalloc) for mymalloc
    exfuns.o(i.exfuns_init) refers to exfuns.o(.data) for .data
    exfuns.o(i.f_typetell) refers to strcpy.o(.text) for strcpy
    exfuns.o(i.f_typetell) refers to exfuns.o(i.char_upper) for char_upper
    exfuns.o(i.f_typetell) refers to strcmpv7m.o(.text) for strcmp
    exfuns.o(i.f_typetell) refers to exfuns.o(.constdata) for .constdata
    exfuns.o(.constdata) refers to exfuns.o(.conststring) for .conststring
    fattester.o(i.mf_close) refers to ff.o(i.f_close) for f_close
    fattester.o(i.mf_close) refers to exfuns.o(.data) for file
    fattester.o(i.mf_closedir) refers to ff.o(i.f_closedir) for f_closedir
    fattester.o(i.mf_closedir) refers to exfuns.o(.bss) for dir
    fattester.o(i.mf_fmkfs) refers to ff.o(i.f_mkfs) for f_mkfs
    fattester.o(i.mf_getlabel) refers to _printf_percent.o(.ARM.Collect$$_printf_percent$$00000000) for _printf_percent
    fattester.o(i.mf_getlabel) refers to _printf_s.o(.ARM.Collect$$_printf_percent$$00000014) for _printf_s
    fattester.o(i.mf_getlabel) refers to _printf_str.o(.text) for _printf_str
    fattester.o(i.mf_getlabel) refers to _printf_x.o(.ARM.Collect$$_printf_percent$$0000000C) for _printf_x
    fattester.o(i.mf_getlabel) refers to _printf_hex_int.o(.text) for _printf_longlong_hex
    fattester.o(i.mf_getlabel) refers to ff.o(i.f_getlabel) for f_getlabel
    fattester.o(i.mf_getlabel) refers to noretval__2printf.o(.text) for __2printf
    fattester.o(i.mf_gets) refers to _printf_percent.o(.ARM.Collect$$_printf_percent$$00000000) for _printf_percent
    fattester.o(i.mf_gets) refers to _printf_s.o(.ARM.Collect$$_printf_percent$$00000014) for _printf_s
    fattester.o(i.mf_gets) refers to _printf_str.o(.text) for _printf_str
    fattester.o(i.mf_gets) refers to ff.o(i.f_gets) for f_gets
    fattester.o(i.mf_gets) refers to noretval__2printf.o(.text) for __2printf
    fattester.o(i.mf_gets) refers to exfuns.o(.data) for file
    fattester.o(i.mf_lseek) refers to ff.o(i.f_lseek) for f_lseek
    fattester.o(i.mf_lseek) refers to exfuns.o(.data) for file
    fattester.o(i.mf_mkdir) refers to ff.o(i.f_mkdir) for f_mkdir
    fattester.o(i.mf_mount) refers to ff.o(i.f_mount) for f_mount
    fattester.o(i.mf_mount) refers to exfuns.o(.data) for fs
    fattester.o(i.mf_open) refers to ff.o(i.f_open) for f_open
    fattester.o(i.mf_open) refers to exfuns.o(.data) for file
    fattester.o(i.mf_opendir) refers to ff.o(i.f_opendir) for f_opendir
    fattester.o(i.mf_opendir) refers to exfuns.o(.bss) for dir
    fattester.o(i.mf_putc) refers to ff.o(i.f_putc) for f_putc
    fattester.o(i.mf_putc) refers to exfuns.o(.data) for file
    fattester.o(i.mf_puts) refers to ff.o(i.f_puts) for f_puts
    fattester.o(i.mf_puts) refers to exfuns.o(.data) for file
    fattester.o(i.mf_read) refers to _printf_percent.o(.ARM.Collect$$_printf_percent$$00000000) for _printf_percent
    fattester.o(i.mf_read) refers to _printf_d.o(.ARM.Collect$$_printf_percent$$00000009) for _printf_d
    fattester.o(i.mf_read) refers to _printf_dec.o(.text) for _printf_int_dec
    fattester.o(i.mf_read) refers to _printf_c.o(.ARM.Collect$$_printf_percent$$00000013) for _printf_c
    fattester.o(i.mf_read) refers to _printf_str.o(.text) for _printf_str
    fattester.o(i.mf_read) refers to noretval__2printf.o(.text) for __2printf
    fattester.o(i.mf_read) refers to ff.o(i.f_read) for f_read
    fattester.o(i.mf_read) refers to exfuns.o(.data) for fatbuf
    fattester.o(i.mf_read) refers to exfuns.o(.data) for br
    fattester.o(i.mf_readdir) refers to _printf_percent.o(.ARM.Collect$$_printf_percent$$00000000) for _printf_percent
    fattester.o(i.mf_readdir) refers to _printf_d.o(.ARM.Collect$$_printf_percent$$00000009) for _printf_d
    fattester.o(i.mf_readdir) refers to _printf_dec.o(.text) for _printf_int_dec
    fattester.o(i.mf_readdir) refers to _printf_s.o(.ARM.Collect$$_printf_percent$$00000014) for _printf_s
    fattester.o(i.mf_readdir) refers to _printf_str.o(.text) for _printf_str
    fattester.o(i.mf_readdir) refers to malloc.o(i.mymalloc) for mymalloc
    fattester.o(i.mf_readdir) refers to ff.o(i.f_readdir) for f_readdir
    fattester.o(i.mf_readdir) refers to malloc.o(i.myfree) for myfree
    fattester.o(i.mf_readdir) refers to noretval__2printf.o(.text) for __2printf
    fattester.o(i.mf_readdir) refers to exfuns.o(.bss) for fileinfo
    fattester.o(i.mf_readdir) refers to exfuns.o(.bss) for dir
    fattester.o(i.mf_rename) refers to ff.o(i.f_rename) for f_rename
    fattester.o(i.mf_scan_files) refers to _printf_percent.o(.ARM.Collect$$_printf_percent$$00000000) for _printf_percent
    fattester.o(i.mf_scan_files) refers to _printf_s.o(.ARM.Collect$$_printf_percent$$00000014) for _printf_s
    fattester.o(i.mf_scan_files) refers to _printf_str.o(.text) for _printf_str
    fattester.o(i.mf_scan_files) refers to malloc.o(i.mymalloc) for mymalloc
    fattester.o(i.mf_scan_files) refers to ff.o(i.f_opendir) for f_opendir
    fattester.o(i.mf_scan_files) refers to noretval__2printf.o(.text) for __2printf
    fattester.o(i.mf_scan_files) refers to ff.o(i.f_readdir) for f_readdir
    fattester.o(i.mf_scan_files) refers to malloc.o(i.myfree) for myfree
    fattester.o(i.mf_scan_files) refers to exfuns.o(.bss) for fileinfo
    fattester.o(i.mf_scan_files) refers to exfuns.o(.bss) for dir
    fattester.o(i.mf_setlabel) refers to _printf_percent.o(.ARM.Collect$$_printf_percent$$00000000) for _printf_percent
    fattester.o(i.mf_setlabel) refers to _printf_s.o(.ARM.Collect$$_printf_percent$$00000014) for _printf_s
    fattester.o(i.mf_setlabel) refers to _printf_str.o(.text) for _printf_str
    fattester.o(i.mf_setlabel) refers to _printf_x.o(.ARM.Collect$$_printf_percent$$0000000C) for _printf_x
    fattester.o(i.mf_setlabel) refers to _printf_hex_int.o(.text) for _printf_longlong_hex
    fattester.o(i.mf_setlabel) refers to ff.o(i.f_setlabel) for f_setlabel
    fattester.o(i.mf_setlabel) refers to noretval__2printf.o(.text) for __2printf
    fattester.o(i.mf_showfree) refers to _printf_percent.o(.ARM.Collect$$_printf_percent$$00000000) for _printf_percent
    fattester.o(i.mf_showfree) refers to _printf_d.o(.ARM.Collect$$_printf_percent$$00000009) for _printf_d
    fattester.o(i.mf_showfree) refers to _printf_dec.o(.text) for _printf_int_dec
    fattester.o(i.mf_showfree) refers to ff.o(i.f_getfree) for f_getfree
    fattester.o(i.mf_showfree) refers to noretval__2printf.o(.text) for __2printf
    fattester.o(i.mf_size) refers to exfuns.o(.data) for file
    fattester.o(i.mf_tell) refers to exfuns.o(.data) for file
    fattester.o(i.mf_unlink) refers to ff.o(i.f_unlink) for f_unlink
    fattester.o(i.mf_write) refers to _printf_percent.o(.ARM.Collect$$_printf_percent$$00000000) for _printf_percent
    fattester.o(i.mf_write) refers to _printf_d.o(.ARM.Collect$$_printf_percent$$00000009) for _printf_d
    fattester.o(i.mf_write) refers to _printf_dec.o(.text) for _printf_int_dec
    fattester.o(i.mf_write) refers to noretval__2printf.o(.text) for __2printf
    fattester.o(i.mf_write) refers to ff.o(i.f_write) for f_write
    fattester.o(i.mf_write) refers to exfuns.o(.data) for bw
    fattester.o(i.mf_write) refers to exfuns.o(.data) for file
    mycc936.o(i.ff_convert) refers to w25qxx.o(i.W25QXX_Read) for W25QXX_Read
    mycc936.o(i.ff_convert) refers to fontupd.o(.bss) for ftinfo
    mycc936.o(i.ff_wtoupper) refers to mycc936.o(.constdata) for .constdata
    usmart.o(i.TIM4_IRQHandler) refers to stm32f10x_tim.o(i.TIM_GetITStatus) for TIM_GetITStatus
    usmart.o(i.TIM4_IRQHandler) refers to stm32f10x_tim.o(i.TIM_SetCounter) for TIM_SetCounter
    usmart.o(i.TIM4_IRQHandler) refers to stm32f10x_tim.o(i.TIM_SetAutoreload) for TIM_SetAutoreload
    usmart.o(i.TIM4_IRQHandler) refers to stm32f10x_tim.o(i.TIM_ClearITPendingBit) for TIM_ClearITPendingBit
    usmart.o(i.TIM4_IRQHandler) refers to usmart_config.o(.data) for usmart_dev
    usmart.o(i.Timer4_Init) refers to stm32f10x_rcc.o(i.RCC_APB1PeriphClockCmd) for RCC_APB1PeriphClockCmd
    usmart.o(i.Timer4_Init) refers to stm32f10x_tim.o(i.TIM_TimeBaseInit) for TIM_TimeBaseInit
    usmart.o(i.Timer4_Init) refers to stm32f10x_tim.o(i.TIM_ITConfig) for TIM_ITConfig
    usmart.o(i.Timer4_Init) refers to misc.o(i.NVIC_Init) for NVIC_Init
    usmart.o(i.Timer4_Init) refers to stm32f10x_tim.o(i.TIM_Cmd) for TIM_Cmd
    usmart.o(i.usmart_cmd_rec) refers to usmart_str.o(i.usmart_get_fname) for usmart_get_fname
    usmart.o(i.usmart_cmd_rec) refers to usmart_str.o(i.usmart_strcmp) for usmart_strcmp
    usmart.o(i.usmart_cmd_rec) refers to usmart_str.o(i.usmart_get_fparam) for usmart_get_fparam
    usmart.o(i.usmart_cmd_rec) refers to usmart_config.o(.data) for usmart_dev
    usmart.o(i.usmart_exe) refers to _printf_percent.o(.ARM.Collect$$_printf_percent$$00000000) for _printf_percent
    usmart.o(i.usmart_exe) refers to _printf_s.o(.ARM.Collect$$_printf_percent$$00000014) for _printf_s
    usmart.o(i.usmart_exe) refers to _printf_str.o(.text) for _printf_str
    usmart.o(i.usmart_exe) refers to _printf_c.o(.ARM.Collect$$_printf_percent$$00000013) for _printf_c
    usmart.o(i.usmart_exe) refers to _printf_u.o(.ARM.Collect$$_printf_percent$$0000000A) for _printf_u
    usmart.o(i.usmart_exe) refers to _printf_dec.o(.text) for _printf_int_dec
    usmart.o(i.usmart_exe) refers to _printf_x.o(.ARM.Collect$$_printf_percent$$0000000C) for _printf_x
    usmart.o(i.usmart_exe) refers to _printf_hex_int.o(.text) for _printf_longlong_hex
    usmart.o(i.usmart_exe) refers to _printf_pad.o(.text) for _printf_pre_padding
    usmart.o(i.usmart_exe) refers to _printf_d.o(.ARM.Collect$$_printf_percent$$00000009) for _printf_d
    usmart.o(i.usmart_exe) refers to usmart_str.o(i.usmart_get_fname) for usmart_get_fname
    usmart.o(i.usmart_exe) refers to noretval__2printf.o(.text) for __2printf
    usmart.o(i.usmart_exe) refers to usmart_str.o(i.usmart_get_parmpos) for usmart_get_parmpos
    usmart.o(i.usmart_exe) refers to usmart.o(i.usmart_reset_runtime) for usmart_reset_runtime
    usmart.o(i.usmart_exe) refers to usmart.o(i.usmart_get_runtime) for usmart_get_runtime
    usmart.o(i.usmart_exe) refers to usmart_config.o(.data) for usmart_dev
    usmart.o(i.usmart_get_runtime) refers to stm32f10x_tim.o(i.TIM_GetFlagStatus) for TIM_GetFlagStatus
    usmart.o(i.usmart_get_runtime) refers to stm32f10x_tim.o(i.TIM_GetCounter) for TIM_GetCounter
    usmart.o(i.usmart_get_runtime) refers to usmart_config.o(.data) for usmart_dev
    usmart.o(i.usmart_init) refers to usmart.o(i.Timer4_Init) for Timer4_Init
    usmart.o(i.usmart_init) refers to usmart_config.o(.data) for usmart_dev
    usmart.o(i.usmart_reset_runtime) refers to stm32f10x_tim.o(i.TIM_ClearFlag) for TIM_ClearFlag
    usmart.o(i.usmart_reset_runtime) refers to stm32f10x_tim.o(i.TIM_SetAutoreload) for TIM_SetAutoreload
    usmart.o(i.usmart_reset_runtime) refers to stm32f10x_tim.o(i.TIM_SetCounter) for TIM_SetCounter
    usmart.o(i.usmart_reset_runtime) refers to usmart_config.o(.data) for usmart_dev
    usmart.o(i.usmart_scan) refers to usmart.o(i.usmart_sys_cmd_exe) for usmart_sys_cmd_exe
    usmart.o(i.usmart_scan) refers to noretval__2printf.o(.text) for __2printf
    usmart.o(i.usmart_scan) refers to usart.o(.data) for USART_RX_STA
    usmart.o(i.usmart_scan) refers to usart.o(.bss) for USART_RX_BUF
    usmart.o(i.usmart_scan) refers to usmart_config.o(.data) for usmart_dev
    usmart.o(i.usmart_sys_cmd_exe) refers to _printf_percent.o(.ARM.Collect$$_printf_percent$$00000000) for _printf_percent
    usmart.o(i.usmart_sys_cmd_exe) refers to _printf_s.o(.ARM.Collect$$_printf_percent$$00000014) for _printf_s
    usmart.o(i.usmart_sys_cmd_exe) refers to _printf_str.o(.text) for _printf_str
    usmart.o(i.usmart_sys_cmd_exe) refers to _printf_pad.o(.text) for _printf_pre_padding
    usmart.o(i.usmart_sys_cmd_exe) refers to _printf_x.o(.ARM.Collect$$_printf_percent$$0000000C) for _printf_x
    usmart.o(i.usmart_sys_cmd_exe) refers to _printf_hex_int.o(.text) for _printf_longlong_hex
    usmart.o(i.usmart_sys_cmd_exe) refers to _printf_u.o(.ARM.Collect$$_printf_percent$$0000000A) for _printf_u
    usmart.o(i.usmart_sys_cmd_exe) refers to _printf_dec.o(.text) for _printf_int_dec
    usmart.o(i.usmart_sys_cmd_exe) refers to usmart_str.o(i.usmart_get_cmdname) for usmart_get_cmdname
    usmart.o(i.usmart_sys_cmd_exe) refers to usmart_str.o(i.usmart_strcmp) for usmart_strcmp
    usmart.o(i.usmart_sys_cmd_exe) refers to noretval__2printf.o(.text) for __2printf
    usmart.o(i.usmart_sys_cmd_exe) refers to usmart.o(.data) for .data
    usmart.o(i.usmart_sys_cmd_exe) refers to usmart_config.o(.data) for usmart_dev
    usmart.o(i.usmart_sys_cmd_exe) refers to usmart_str.o(i.usmart_get_fname) for usmart_get_fname
    usmart.o(i.usmart_sys_cmd_exe) refers to usmart_str.o(i.usmart_get_aparm) for usmart_get_aparm
    usmart.o(i.usmart_sys_cmd_exe) refers to usmart_str.o(i.usmart_str2num) for usmart_str2num
    usmart.o(.data) refers to usmart.o(.conststring) for .conststring
    usmart_config.o(.data) refers to usmart.o(i.read_addr) for read_addr
    usmart_config.o(.data) refers to usmart_config.o(.conststring) for .conststring
    usmart_config.o(.data) refers to usmart.o(i.write_addr) for write_addr
    usmart_config.o(.data) refers to sccb.o(i.SCCB_WR_Reg) for SCCB_WR_Reg
    usmart_config.o(.data) refers to sccb.o(i.SCCB_RD_Reg) for SCCB_RD_Reg
    usmart_config.o(.data) refers to ov2640.o(i.OV2640_Auto_Exposure) for OV2640_Auto_Exposure
    usmart_config.o(.data) refers to ov2640.o(i.OV2640_Light_Mode) for OV2640_Light_Mode
    usmart_config.o(.data) refers to ov2640.o(i.OV2640_Color_Saturation) for OV2640_Color_Saturation
    usmart_config.o(.data) refers to ov2640.o(i.OV2640_Brightness) for OV2640_Brightness
    usmart_config.o(.data) refers to ov2640.o(i.OV2640_Contrast) for OV2640_Contrast
    usmart_config.o(.data) refers to ov2640.o(i.OV2640_Special_Effects) for OV2640_Special_Effects
    usmart_config.o(.data) refers to ov2640.o(i.OV2640_Color_Bar) for OV2640_Color_Bar
    usmart_config.o(.data) refers to ov2640.o(i.OV2640_Window_Set) for OV2640_Window_Set
    usmart_config.o(.data) refers to ov2640.o(i.OV2640_OutSize_Set) for OV2640_OutSize_Set
    usmart_config.o(.data) refers to ov2640.o(i.OV2640_ImageWin_Set) for OV2640_ImageWin_Set
    usmart_config.o(.data) refers to ov2640.o(i.OV2640_ImageSize_Set) for OV2640_ImageSize_Set
    usmart_config.o(.data) refers to ov2640.o(i.OV2640_JPEG_Mode) for OV2640_JPEG_Mode
    usmart_config.o(.data) refers to ov2640.o(i.OV2640_RGB565_Mode) for OV2640_RGB565_Mode
    usmart_config.o(.data) refers to usmart_config.o(.data) for usmart_nametab
    usmart_config.o(.data) refers to usmart.o(i.usmart_init) for usmart_init
    usmart_config.o(.data) refers to usmart.o(i.usmart_cmd_rec) for usmart_cmd_rec
    usmart_config.o(.data) refers to usmart.o(i.usmart_exe) for usmart_exe
    usmart_config.o(.data) refers to usmart.o(i.usmart_scan) for usmart_scan
    usmart_str.o(i.usmart_get_fname) refers to usmart_str.o(i.usmart_strcmp) for usmart_strcmp
    usmart_str.o(i.usmart_get_fname) refers to usmart_str.o(i.usmart_search_nextc) for usmart_search_nextc
    usmart_str.o(i.usmart_get_fparam) refers to usmart_str.o(i.usmart_get_aparm) for usmart_get_aparm
    usmart_str.o(i.usmart_get_fparam) refers to usmart_str.o(i.usmart_str2num) for usmart_str2num
    usmart_str.o(i.usmart_get_fparam) refers to usmart_str.o(i.usmart_get_parmpos) for usmart_get_parmpos
    usmart_str.o(i.usmart_get_fparam) refers to usmart_str.o(i.usmart_strlen) for usmart_strlen
    usmart_str.o(i.usmart_get_fparam) refers to usmart_str.o(i.usmart_strcopy) for usmart_strcopy
    usmart_str.o(i.usmart_get_fparam) refers to usmart_config.o(.data) for usmart_dev
    usmart_str.o(i.usmart_get_parmpos) refers to usmart_config.o(.data) for usmart_dev
    usmart_str.o(i.usmart_str2num) refers to usmart_str.o(i.usmart_pow) for usmart_pow
    fontupd.o(i.font_init) refers to w25qxx.o(i.W25QXX_Init) for W25QXX_Init
    fontupd.o(i.font_init) refers to w25qxx.o(i.W25QXX_Read) for W25QXX_Read
    fontupd.o(i.font_init) refers to delay.o(i.delay_ms) for delay_ms
    fontupd.o(i.font_init) refers to fontupd.o(.bss) for .bss
    fontupd.o(i.fupd_prog) refers to fflt_clz.o(x$fpl$ffltu) for __aeabi_ui2f
    fontupd.o(i.fupd_prog) refers to fdiv.o(x$fpl$fdiv) for __aeabi_fdiv
    fontupd.o(i.fupd_prog) refers to fmul.o(x$fpl$fmul) for __aeabi_fmul
    fontupd.o(i.fupd_prog) refers to feqf.o(x$fpl$feqf) for __aeabi_cfcmpeq
    fontupd.o(i.fupd_prog) refers to lcd.o(i.LCD_ShowString) for LCD_ShowString
    fontupd.o(i.fupd_prog) refers to ffixu.o(x$fpl$ffixu) for __aeabi_f2uiz
    fontupd.o(i.fupd_prog) refers to lcd.o(i.LCD_ShowNum) for LCD_ShowNum
    fontupd.o(i.updata_fontx) refers to malloc.o(i.mymalloc) for mymalloc
    fontupd.o(i.updata_fontx) refers to ff.o(i.f_open) for f_open
    fontupd.o(i.updata_fontx) refers to ff.o(i.f_close) for f_close
    fontupd.o(i.updata_fontx) refers to malloc.o(i.myfree) for myfree
    fontupd.o(i.updata_fontx) refers to ff.o(i.f_read) for f_read
    fontupd.o(i.updata_fontx) refers to w25qxx.o(i.W25QXX_Write) for W25QXX_Write
    fontupd.o(i.updata_fontx) refers to fontupd.o(i.fupd_prog) for fupd_prog
    fontupd.o(i.updata_fontx) refers to fontupd.o(.bss) for .bss
    fontupd.o(i.update_font) refers to malloc.o(i.mymalloc) for mymalloc
    fontupd.o(i.update_font) refers to strcpy.o(.text) for strcpy
    fontupd.o(i.update_font) refers to strcat.o(.text) for strcat
    fontupd.o(i.update_font) refers to ff.o(i.f_open) for f_open
    fontupd.o(i.update_font) refers to malloc.o(i.myfree) for myfree
    fontupd.o(i.update_font) refers to lcd.o(i.LCD_ShowString) for LCD_ShowString
    fontupd.o(i.update_font) refers to fontupd.o(i.fupd_prog) for fupd_prog
    fontupd.o(i.update_font) refers to w25qxx.o(i.W25QXX_Read) for W25QXX_Read
    fontupd.o(i.update_font) refers to w25qxx.o(i.W25QXX_Erase_Sector) for W25QXX_Erase_Sector
    fontupd.o(i.update_font) refers to fontupd.o(i.updata_fontx) for updata_fontx
    fontupd.o(i.update_font) refers to w25qxx.o(i.W25QXX_Write) for W25QXX_Write
    fontupd.o(i.update_font) refers to fontupd.o(.bss) for .bss
    fontupd.o(i.update_font) refers to fontupd.o(.constdata) for .constdata
    fontupd.o(.constdata) refers to fontupd.o(.conststring) for .conststring
    text.o(i.Get_HzMat) refers to w25qxx.o(i.W25QXX_Read) for W25QXX_Read
    text.o(i.Get_HzMat) refers to fontupd.o(.bss) for ftinfo
    text.o(i.Show_Font) refers to text.o(i.Get_HzMat) for Get_HzMat
    text.o(i.Show_Font) refers to lcd.o(i.LCD_Fast_DrawPoint) for LCD_Fast_DrawPoint
    text.o(i.Show_Font) refers to lcd.o(.data) for POINT_COLOR
    text.o(i.Show_Str) refers to text.o(i.Show_Font) for Show_Font
    text.o(i.Show_Str) refers to lcd.o(i.LCD_ShowChar) for LCD_ShowChar
    text.o(i.Show_Str_Mid) refers to strlen.o(.text) for strlen
    text.o(i.Show_Str_Mid) refers to text.o(i.Show_Str) for Show_Str
    text.o(i.Show_Str_Mid) refers to lcd.o(.bss) for lcddev
    bmp.o(i.bmp_encode) refers to piclib.o(i.pic_memalloc) for pic_memalloc
    bmp.o(i.bmp_encode) refers to malloc.o(i.mymemset) for mymemset
    bmp.o(i.bmp_encode) refers to piclib.o(i.pic_memfree) for pic_memfree
    bmp.o(i.bmp_encode) refers to ff.o(i.f_open) for f_open
    bmp.o(i.bmp_encode) refers to ff.o(i.f_write) for f_write
    bmp.o(i.bmp_encode) refers to lcd.o(i.LCD_ReadPoint) for LCD_ReadPoint
    bmp.o(i.bmp_encode) refers to ff.o(i.f_close) for f_close
    bmp.o(i.bmp_encode) refers to lcd.o(.bss) for lcddev
    bmp.o(i.bmp_encode) refers to exfuns.o(.data) for bw
    bmp.o(i.minibmp_decode) refers to piclib.o(i.pic_memalloc) for pic_memalloc
    bmp.o(i.minibmp_decode) refers to ff.o(i.f_open) for f_open
    bmp.o(i.minibmp_decode) refers to piclib.o(i.pic_memfree) for pic_memfree
    bmp.o(i.minibmp_decode) refers to ff.o(i.f_read) for f_read
    bmp.o(i.minibmp_decode) refers to ff.o(i.f_lseek) for f_lseek
    bmp.o(i.minibmp_decode) refers to piclib.o(i.piclib_alpha_blend) for piclib_alpha_blend
    bmp.o(i.minibmp_decode) refers to ff.o(i.f_close) for f_close
    bmp.o(i.minibmp_decode) refers to piclib.o(.bss) for picinfo
    bmp.o(i.stdbmp_decode) refers to piclib.o(i.pic_memalloc) for pic_memalloc
    bmp.o(i.stdbmp_decode) refers to ff.o(i.f_open) for f_open
    bmp.o(i.stdbmp_decode) refers to piclib.o(i.pic_memfree) for pic_memfree
    bmp.o(i.stdbmp_decode) refers to ff.o(i.f_read) for f_read
    bmp.o(i.stdbmp_decode) refers to piclib.o(i.ai_draw_init) for ai_draw_init
    bmp.o(i.stdbmp_decode) refers to piclib.o(i.is_element_ok) for is_element_ok
    bmp.o(i.stdbmp_decode) refers to ff.o(i.f_close) for f_close
    bmp.o(i.stdbmp_decode) refers to piclib.o(.bss) for picinfo
    gif.o(i.gif_check_head) refers to ff.o(i.f_read) for f_read
    gif.o(i.gif_clear2bkcolor) refers to piclib.o(.bss) for pic_phy
    gif.o(i.gif_decode) refers to piclib.o(i.pic_memalloc) for pic_memalloc
    gif.o(i.gif_decode) refers to ff.o(i.f_open) for f_open
    gif.o(i.gif_decode) refers to gif.o(i.gif_check_head) for gif_check_head
    gif.o(i.gif_decode) refers to gif.o(i.gif_getinfo) for gif_getinfo
    gif.o(i.gif_decode) refers to gif.o(i.gif_drawimage) for gif_drawimage
    gif.o(i.gif_decode) refers to gif.o(i.gif_recovergctbl) for gif_recovergctbl
    gif.o(i.gif_decode) refers to delay.o(i.delay_ms) for delay_ms
    gif.o(i.gif_decode) refers to ff.o(i.f_close) for f_close
    gif.o(i.gif_decode) refers to piclib.o(i.pic_memfree) for pic_memfree
    gif.o(i.gif_decode) refers to gif.o(.data) for .data
    gif.o(i.gif_dispimage) refers to ff.o(i.f_read) for f_read
    gif.o(i.gif_dispimage) refers to gif.o(i.gif_initlzw) for gif_initlzw
    gif.o(i.gif_dispimage) refers to gif.o(i.gif_getnextbyte) for gif_getnextbyte
    gif.o(i.gif_dispimage) refers to piclib.o(.bss) for pic_phy
    gif.o(i.gif_dispimage) refers to gif.o(.constdata) for .constdata
    gif.o(i.gif_drawimage) refers to ff.o(i.f_read) for f_read
    gif.o(i.gif_drawimage) refers to gif.o(i.gif_savegctbl) for gif_savegctbl
    gif.o(i.gif_drawimage) refers to gif.o(i.gif_readcolortbl) for gif_readcolortbl
    gif.o(i.gif_drawimage) refers to gif.o(i.gif_clear2bkcolor) for gif_clear2bkcolor
    gif.o(i.gif_drawimage) refers to gif.o(i.gif_dispimage) for gif_dispimage
    gif.o(i.gif_drawimage) refers to ff.o(i.f_lseek) for f_lseek
    gif.o(i.gif_drawimage) refers to gif.o(i.gif_readextension) for gif_readextension
    gif.o(i.gif_getdatablock) refers to ff.o(i.f_read) for f_read
    gif.o(i.gif_getdatablock) refers to ff.o(i.f_lseek) for f_lseek
    gif.o(i.gif_getinfo) refers to ff.o(i.f_read) for f_read
    gif.o(i.gif_getinfo) refers to gif.o(i.gif_readcolortbl) for gif_readcolortbl
    gif.o(i.gif_getnextbyte) refers to malloc.o(i.mymemset) for mymemset
    gif.o(i.gif_getnextbyte) refers to gif.o(i.gif_getnextcode) for gif_getnextcode
    gif.o(i.gif_getnextcode) refers to gif.o(i.gif_getdatablock) for gif_getdatablock
    gif.o(i.gif_getnextcode) refers to gif.o(.constdata) for .constdata
    gif.o(i.gif_initlzw) refers to malloc.o(i.mymemset) for mymemset
    gif.o(i.gif_quit) refers to gif.o(.data) for .data
    gif.o(i.gif_readcolortbl) refers to ff.o(i.f_read) for f_read
    gif.o(i.gif_readcolortbl) refers to gif.o(i.gif_getrgb565) for gif_getrgb565
    gif.o(i.gif_readextension) refers to ff.o(i.f_read) for f_read
    gif.o(i.gif_readextension) refers to gif.o(i.gif_getdatablock) for gif_getdatablock
    piclib.o(i.ai_draw_init) refers to fflt_clz.o(x$fpl$ffltu) for __aeabi_ui2f
    piclib.o(i.ai_draw_init) refers to fdiv.o(x$fpl$fdiv) for __aeabi_fdiv
    piclib.o(i.ai_draw_init) refers to fleqf.o(x$fpl$fleqf) for __aeabi_cfcmple
    piclib.o(i.ai_draw_init) refers to fmul.o(x$fpl$fmul) for __aeabi_fmul
    piclib.o(i.ai_draw_init) refers to faddsub_clz.o(x$fpl$fsub) for __aeabi_fsub
    piclib.o(i.ai_draw_init) refers to scalbnf.o(x$fpl$scalbnf) for __ARM_scalbnf
    piclib.o(i.ai_draw_init) refers to faddsub_clz.o(x$fpl$fadd) for __aeabi_fadd
    piclib.o(i.ai_draw_init) refers to ffixu.o(x$fpl$ffixu) for __aeabi_f2uiz
    piclib.o(i.ai_draw_init) refers to piclib.o(.bss) for .bss
    piclib.o(i.ai_load_picfile) refers to exfuns.o(i.f_typetell) for f_typetell
    piclib.o(i.ai_load_picfile) refers to bmp.o(i.stdbmp_decode) for stdbmp_decode
    piclib.o(i.ai_load_picfile) refers to tjpgd.o(i.jpg_decode) for jpg_decode
    piclib.o(i.ai_load_picfile) refers to gif.o(i.gif_decode) for gif_decode
    piclib.o(i.ai_load_picfile) refers to piclib.o(.bss) for .bss
    piclib.o(i.is_element_ok) refers to piclib.o(.bss) for .bss
    piclib.o(i.pic_memalloc) refers to malloc.o(i.mymalloc) for mymalloc
    piclib.o(i.pic_memfree) refers to malloc.o(i.myfree) for myfree
    piclib.o(i.piclib_draw_hline) refers to lcd.o(i.LCD_Fill) for LCD_Fill
    piclib.o(i.piclib_draw_hline) refers to lcd.o(.bss) for lcddev
    piclib.o(i.piclib_fill_color) refers to lcd.o(i.LCD_Color_Fill) for LCD_Color_Fill
    piclib.o(i.piclib_init) refers to lcd.o(i.LCD_ReadPoint) for LCD_ReadPoint
    piclib.o(i.piclib_init) refers to piclib.o(.bss) for .bss
    piclib.o(i.piclib_init) refers to lcd.o(i.LCD_Fast_DrawPoint) for LCD_Fast_DrawPoint
    piclib.o(i.piclib_init) refers to lcd.o(i.LCD_Fill) for LCD_Fill
    piclib.o(i.piclib_init) refers to piclib.o(i.piclib_draw_hline) for piclib_draw_hline
    piclib.o(i.piclib_init) refers to piclib.o(i.piclib_fill_color) for piclib_fill_color
    piclib.o(i.piclib_init) refers to lcd.o(.bss) for lcddev
    tjpgd.o(i.block_idct) refers to tjpgd.o(.constdata) for .constdata
    tjpgd.o(i.create_huffman_tbl) refers to tjpgd.o(i.alloc_pool) for alloc_pool
    tjpgd.o(i.jd_decomp) refers to tjpgd.o(i.mcu_load) for mcu_load
    tjpgd.o(i.jd_decomp) refers to tjpgd.o(i.mcu_output) for mcu_output
    tjpgd.o(i.jd_prepare) refers to tjpgd.o(i.alloc_pool) for alloc_pool
    tjpgd.o(i.jd_prepare) refers to tjpgd.o(i.create_huffman_tbl) for create_huffman_tbl
    tjpgd.o(i.jd_prepare) refers to tjpgd.o(.constdata) for .constdata
    tjpgd.o(i.jpeg_freeall) refers to piclib.o(i.pic_memfree) for pic_memfree
    tjpgd.o(i.jpeg_freeall) refers to tjpgd.o(.data) for .data
    tjpgd.o(i.jpeg_in_func) refers to ff.o(i.f_read) for f_read
    tjpgd.o(i.jpeg_in_func) refers to ff.o(i.f_lseek) for f_lseek
    tjpgd.o(i.jpeg_mallocall) refers to piclib.o(i.pic_memalloc) for pic_memalloc
    tjpgd.o(i.jpeg_mallocall) refers to tjpgd.o(.data) for .data
    tjpgd.o(i.jpeg_out_func_fill) refers to piclib.o(.bss) for picinfo
    tjpgd.o(i.jpeg_out_func_point) refers to piclib.o(i.is_element_ok) for is_element_ok
    tjpgd.o(i.jpeg_out_func_point) refers to piclib.o(.bss) for picinfo
    tjpgd.o(i.jpg_decode) refers to tjpgd.o(i.jpeg_mallocall) for jpeg_mallocall
    tjpgd.o(i.jpg_decode) refers to ff.o(i.f_open) for f_open
    tjpgd.o(i.jpg_decode) refers to tjpgd.o(i.jd_prepare) for jd_prepare
    tjpgd.o(i.jpg_decode) refers to piclib.o(i.ai_draw_init) for ai_draw_init
    tjpgd.o(i.jpg_decode) refers to tjpgd.o(i.jd_decomp) for jd_decomp
    tjpgd.o(i.jpg_decode) refers to ff.o(i.f_close) for f_close
    tjpgd.o(i.jpg_decode) refers to tjpgd.o(i.jpeg_freeall) for jpeg_freeall
    tjpgd.o(i.jpg_decode) refers to tjpgd.o(.data) for .data
    tjpgd.o(i.jpg_decode) refers to tjpgd.o(i.jpeg_in_func) for jpeg_in_func
    tjpgd.o(i.jpg_decode) refers to tjpgd.o(i.jpeg_out_func_point) for jpeg_out_func_point
    tjpgd.o(i.jpg_decode) refers to piclib.o(.bss) for picinfo
    tjpgd.o(i.jpg_decode) refers to tjpgd.o(i.jpeg_out_func_fill) for jpeg_out_func_fill
    tjpgd.o(i.mcu_load) refers to tjpgd.o(i.huffext) for huffext
    tjpgd.o(i.mcu_load) refers to tjpgd.o(i.bitext) for bitext
    tjpgd.o(i.mcu_load) refers to tjpgd.o(i.block_idct) for block_idct
    tjpgd.o(i.mcu_load) refers to tjpgd.o(.constdata) for .constdata
    tjpgd.o(i.mcu_output) refers to tjpgd.o(.constdata) for .constdata
    bsp_adc.o(i.ADCx_Init) refers to stm32f10x_rcc.o(i.RCC_APB2PeriphClockCmd) for RCC_APB2PeriphClockCmd
    bsp_adc.o(i.ADCx_Init) refers to stm32f10x_rcc.o(i.RCC_AHBPeriphClockCmd) for RCC_AHBPeriphClockCmd
    bsp_adc.o(i.ADCx_Init) refers to stm32f10x_rcc.o(i.RCC_ADCCLKConfig) for RCC_ADCCLKConfig
    bsp_adc.o(i.ADCx_Init) refers to stm32f10x_gpio.o(i.GPIO_Init) for GPIO_Init
    bsp_adc.o(i.ADCx_Init) refers to stm32f10x_adc.o(i.ADC_RegularChannelConfig) for ADC_RegularChannelConfig
    bsp_adc.o(i.ADCx_Init) refers to stm32f10x_adc.o(i.ADC_Init) for ADC_Init
    bsp_adc.o(i.ADCx_Init) refers to stm32f10x_dma.o(i.DMA_Init) for DMA_Init
    bsp_adc.o(i.ADCx_Init) refers to stm32f10x_dma.o(i.DMA_Cmd) for DMA_Cmd
    bsp_adc.o(i.ADCx_Init) refers to stm32f10x_adc.o(i.ADC_DMACmd) for ADC_DMACmd
    bsp_adc.o(i.ADCx_Init) refers to stm32f10x_adc.o(i.ADC_Cmd) for ADC_Cmd
    bsp_adc.o(i.ADCx_Init) refers to stm32f10x_adc.o(i.ADC_ResetCalibration) for ADC_ResetCalibration
    bsp_adc.o(i.ADCx_Init) refers to stm32f10x_adc.o(i.ADC_GetResetCalibrationStatus) for ADC_GetResetCalibrationStatus
    bsp_adc.o(i.ADCx_Init) refers to stm32f10x_adc.o(i.ADC_StartCalibration) for ADC_StartCalibration
    bsp_adc.o(i.ADCx_Init) refers to stm32f10x_adc.o(i.ADC_GetCalibrationStatus) for ADC_GetCalibrationStatus
    bsp_adc.o(i.ADCx_Init) refers to stm32f10x_adc.o(i.ADC_SoftwareStartConvCmd) for ADC_SoftwareStartConvCmd
    bsp_adc.o(i.ADCx_Init) refers to bsp_adc.o(.data) for .data
    stm32f10x_adc.o(i.ADC_DeInit) refers to stm32f10x_rcc.o(i.RCC_APB2PeriphResetCmd) for RCC_APB2PeriphResetCmd
    data_processing.o(i.Display_Data) refers to oled.o(i.OLED_ShowChar) for OLED_ShowChar
    data_processing.o(i.Display_Data) refers to data_processing.o(.bss) for .bss
    data_processing.o(i.EC_Value_Conversion) refers to fflt_clz.o(x$fpl$ffltu) for __aeabi_ui2f
    data_processing.o(i.EC_Value_Conversion) refers to scalbnf.o(x$fpl$scalbnf) for __ARM_scalbnf
    data_processing.o(i.EC_Value_Conversion) refers to fmul.o(x$fpl$fmul) for __aeabi_fmul
    data_processing.o(i.EC_Value_Conversion) refers to f2d.o(x$fpl$f2d) for __aeabi_f2d
    data_processing.o(i.EC_Value_Conversion) refers to ddiv.o(x$fpl$ddiv) for __aeabi_ddiv
    data_processing.o(i.EC_Value_Conversion) refers to d2f.o(x$fpl$d2f) for __aeabi_d2f
    data_processing.o(i.EC_Value_Conversion) refers to fdiv.o(x$fpl$fdiv) for __aeabi_fdiv
    data_processing.o(i.EC_Value_Conversion) refers to daddsub_clz.o(x$fpl$dsub) for __aeabi_dsub
    data_processing.o(i.EC_Value_Conversion) refers to dmul.o(x$fpl$dmul) for __aeabi_dmul
    data_processing.o(i.EC_Value_Conversion) refers to daddsub_clz.o(x$fpl$dadd) for __aeabi_dadd
    data_processing.o(i.EC_Value_Conversion) refers to ffix.o(x$fpl$ffix) for __aeabi_f2iz
    data_processing.o(i.EC_Value_Conversion) refers to oled.o(i.OLED_ShowChar) for OLED_ShowChar
    data_processing.o(i.EC_Value_Conversion) refers to oled.o(i.OLED_ShowString) for OLED_ShowString
    data_processing.o(i.EC_Value_Conversion) refers to bsp_adc.o(.data) for AD_Value
    data_processing.o(i.EC_Value_Conversion) refers to data_processing.o(.data) for .data
    data_processing.o(i.EC_Value_Conversion) refers to data_processing.o(.bss) for .bss
    data_processing.o(i.GPIO_Configuration) refers to stm32f10x_rcc.o(i.RCC_APB2PeriphClockCmd) for RCC_APB2PeriphClockCmd
    data_processing.o(i.GPIO_Configuration) refers to stm32f10x_gpio.o(i.GPIO_PinRemapConfig) for GPIO_PinRemapConfig
    data_processing.o(i.PH_Value_Conversion) refers to fflt_clz.o(x$fpl$ffltu) for __aeabi_ui2f
    data_processing.o(i.PH_Value_Conversion) refers to scalbnf.o(x$fpl$scalbnf) for __ARM_scalbnf
    data_processing.o(i.PH_Value_Conversion) refers to f2d.o(x$fpl$f2d) for __aeabi_f2d
    data_processing.o(i.PH_Value_Conversion) refers to dmul.o(x$fpl$dmul) for __aeabi_dmul
    data_processing.o(i.PH_Value_Conversion) refers to d2f.o(x$fpl$d2f) for __aeabi_d2f
    data_processing.o(i.PH_Value_Conversion) refers to daddsub_clz.o(x$fpl$dadd) for __aeabi_dadd
    data_processing.o(i.PH_Value_Conversion) refers to fmul.o(x$fpl$fmul) for __aeabi_fmul
    data_processing.o(i.PH_Value_Conversion) refers to ffix.o(x$fpl$ffix) for __aeabi_f2iz
    data_processing.o(i.PH_Value_Conversion) refers to bsp_adc.o(.data) for AD_Value
    data_processing.o(i.PH_Value_Conversion) refers to data_processing.o(.data) for .data
    data_processing.o(i.PH_Value_Conversion) refers to data_processing.o(.bss) for .bss
    data_processing.o(i.TDS_Value_Conversion) refers to fflt_clz.o(x$fpl$ffltu) for __aeabi_ui2f
    data_processing.o(i.TDS_Value_Conversion) refers to scalbnf.o(x$fpl$scalbnf) for __ARM_scalbnf
    data_processing.o(i.TDS_Value_Conversion) refers to f2d.o(x$fpl$f2d) for __aeabi_f2d
    data_processing.o(i.TDS_Value_Conversion) refers to dmul.o(x$fpl$dmul) for __aeabi_dmul
    data_processing.o(i.TDS_Value_Conversion) refers to d2f.o(x$fpl$d2f) for __aeabi_d2f
    data_processing.o(i.TDS_Value_Conversion) refers to fdiv.o(x$fpl$fdiv) for __aeabi_fdiv
    data_processing.o(i.TDS_Value_Conversion) refers to daddsub_clz.o(x$fpl$dsub) for __aeabi_dsub
    data_processing.o(i.TDS_Value_Conversion) refers to daddsub_clz.o(x$fpl$dadd) for __aeabi_dadd
    data_processing.o(i.TDS_Value_Conversion) refers to scalbn.o(x$fpl$scalbn) for __ARM_scalbn
    data_processing.o(i.TDS_Value_Conversion) refers to ffix.o(x$fpl$ffix) for __aeabi_f2iz
    data_processing.o(i.TDS_Value_Conversion) refers to oled.o(i.OLED_ShowChar) for OLED_ShowChar
    data_processing.o(i.TDS_Value_Conversion) refers to bsp_adc.o(.data) for AD_Value
    data_processing.o(i.TDS_Value_Conversion) refers to data_processing.o(.data) for .data
    data_processing.o(i.TDS_Value_Conversion) refers to data_processing.o(.bss) for .bss
    data_processing.o(i.TEMP_Value_Conversion) refers to ds18b20.o(i.DS18B20_Get_Temp) for DS18B20_Get_Temp
    data_processing.o(i.TEMP_Value_Conversion) refers to ffix.o(x$fpl$ffix) for __aeabi_f2iz
    data_processing.o(i.TEMP_Value_Conversion) refers to oled.o(i.OLED_ShowChar) for OLED_ShowChar
    data_processing.o(i.TEMP_Value_Conversion) refers to oled.o(i.OLED_ShowString) for OLED_ShowString
    data_processing.o(i.TEMP_Value_Conversion) refers to data_processing.o(.data) for .data
    data_processing.o(i.TEMP_Value_Conversion) refers to data_processing.o(.bss) for .bss
    data_processing.o(i.printf_Data) refers to _printf_percent.o(.ARM.Collect$$_printf_percent$$00000000) for _printf_percent
    data_processing.o(i.printf_Data) refers to _printf_s.o(.ARM.Collect$$_printf_percent$$00000014) for _printf_s
    data_processing.o(i.printf_Data) refers to _printf_str.o(.text) for _printf_str
    data_processing.o(i.printf_Data) refers to _printf_f.o(.ARM.Collect$$_printf_percent$$00000003) for _printf_f
    data_processing.o(i.printf_Data) refers to printf1.o(x$fpl$printf1) for _printf_fp_dec
    data_processing.o(i.printf_Data) refers to ds18b20.o(i.DS18B20_Get_Temp) for DS18B20_Get_Temp
    data_processing.o(i.printf_Data) refers to noretval__2printf.o(.text) for __2printf
    data_processing.o(i.printf_Data) refers to fdiv.o(x$fpl$fdiv) for __aeabi_fdiv
    data_processing.o(i.printf_Data) refers to f2d.o(x$fpl$f2d) for __aeabi_f2d
    data_processing.o(i.printf_Data) refers to bsp_adc.o(.data) for AD_Value
    use_no_semi_2.o(.text) refers (Special) to use_no_semi.o(.text) for __use_no_semihosting_swi
    llsdiv.o(.text) refers to lludivv7m.o(.text) for __aeabi_uldivmod
    __2printf.o(.text) refers to _printf_char_file.o(.text) for _printf_char_file
    __2printf.o(.text) refers to usart.o(.data) for __stdout
    __2sprintf.o(.text) refers to _printf_char_common.o(.text) for _printf_char_common
    __2sprintf.o(.text) refers to _sputc.o(.text) for _sputc
    noretval__2printf.o(.text) refers to _printf_char_file.o(.text) for _printf_char_file
    noretval__2printf.o(.text) refers to usart.o(.data) for __stdout
    noretval__2sprintf.o(.text) refers to _printf_char_common.o(.text) for _printf_char_common
    noretval__2sprintf.o(.text) refers to _sputc.o(.text) for _sputc
    __printf.o(.text) refers to _printf_percent.o(.ARM.Collect$$_printf_percent$$00000000) for _printf_percent
    _printf_str.o(.text) refers (Special) to _printf_char.o(.text) for _printf_cs_common
    _printf_str.o(.text) refers (Weak) to _printf_pad.o(.text) for _printf_pre_padding
    _printf_str.o(.text) refers (Weak) to _printf_pad.o(.text) for _printf_post_padding
    _printf_dec.o(.text) refers to _printf_intcommon.o(.text) for _printf_int_common
    _printf_hex_ll.o(.text) refers to _printf_intcommon.o(.text) for _printf_int_common
    _printf_hex_ll.o(.text) refers to _printf_hex_ll.o(.constdata) for .constdata
    _printf_hex_int.o(.text) refers to _printf_intcommon.o(.text) for _printf_int_common
    _printf_hex_int.o(.text) refers to _printf_hex_int.o(.constdata) for .constdata
    _printf_hex_int_ll.o(.text) refers to _printf_intcommon.o(.text) for _printf_int_common
    _printf_hex_int_ll.o(.text) refers to _printf_hex_int_ll.o(.constdata) for .constdata
    _printf_hex_ptr.o(.text) refers to _printf_intcommon.o(.text) for _printf_int_common
    _printf_hex_ptr.o(.text) refers to _printf_hex_ptr.o(.constdata) for .constdata
    _printf_hex_int_ptr.o(.text) refers to _printf_intcommon.o(.text) for _printf_int_common
    _printf_hex_int_ptr.o(.text) refers to _printf_hex_int_ptr.o(.constdata) for .constdata
    _printf_hex_ll_ptr.o(.text) refers to _printf_intcommon.o(.text) for _printf_int_common
    _printf_hex_ll_ptr.o(.text) refers to _printf_hex_ll_ptr.o(.constdata) for .constdata
    _printf_hex_int_ll_ptr.o(.text) refers to _printf_intcommon.o(.text) for _printf_int_common
    _printf_hex_int_ll_ptr.o(.text) refers to _printf_hex_int_ll_ptr.o(.constdata) for .constdata
    __printf_flags.o(.text) refers to _printf_percent.o(.ARM.Collect$$_printf_percent$$00000000) for _printf_percent
    __printf_flags.o(.text) refers to __printf_flags.o(.constdata) for .constdata
    __printf_ss.o(.text) refers to _printf_percent.o(.ARM.Collect$$_printf_percent$$00000000) for _printf_percent
    __printf_flags_ss.o(.text) refers to _printf_percent.o(.ARM.Collect$$_printf_percent$$00000000) for _printf_percent
    __printf_flags_ss.o(.text) refers to __printf_flags_ss.o(.constdata) for .constdata
    __printf_wp.o(.text) refers to __printf_wp.o(i._is_digit) for _is_digit
    __printf_wp.o(.text) refers to _printf_percent.o(.ARM.Collect$$_printf_percent$$00000000) for _printf_percent
    __printf_flags_wp.o(.text) refers to __printf_wp.o(i._is_digit) for _is_digit
    __printf_flags_wp.o(.text) refers to _printf_percent.o(.ARM.Collect$$_printf_percent$$00000000) for _printf_percent
    __printf_flags_wp.o(.text) refers to __printf_flags_wp.o(.constdata) for .constdata
    __printf_ss_wp.o(.text) refers to __printf_wp.o(i._is_digit) for _is_digit
    __printf_ss_wp.o(.text) refers to _printf_percent.o(.ARM.Collect$$_printf_percent$$00000000) for _printf_percent
    __printf_flags_ss_wp.o(.text) refers to __printf_wp.o(i._is_digit) for _is_digit
    __printf_flags_ss_wp.o(.text) refers to _printf_percent.o(.ARM.Collect$$_printf_percent$$00000000) for _printf_percent
    __printf_flags_ss_wp.o(.text) refers to __printf_flags_ss_wp.o(.constdata) for .constdata
    _printf_c.o(.ARM.Collect$$_printf_percent$$00000013) refers (Weak) to _printf_char.o(.text) for _printf_char
    _printf_s.o(.ARM.Collect$$_printf_percent$$00000014) refers (Weak) to _printf_char.o(.text) for _printf_string
    _printf_x.o(.ARM.Collect$$_printf_percent$$0000000C) refers (Weak) to _printf_hex_int.o(.text) for _printf_int_hex
    _printf_d.o(.ARM.Collect$$_printf_percent$$00000009) refers (Weak) to _printf_dec.o(.text) for _printf_int_dec
    _printf_u.o(.ARM.Collect$$_printf_percent$$0000000A) refers (Weak) to _printf_dec.o(.text) for _printf_int_dec
    _printf_f.o(.ARM.Collect$$_printf_percent$$00000003) refers (Weak) to printf1.o(x$fpl$printf1) for _printf_fp_dec
    _printf_percent.o(.ARM.Collect$$_printf_percent$$00000000) refers (Special) to _printf_percent_end.o(.ARM.Collect$$_printf_percent$$00000017) for _printf_percent_end
    rt_memcpy_v6.o(.text) refers to rt_memcpy_w.o(.text) for __aeabi_memcpy4
    __main.o(!!!main) refers to __rtentry.o(.ARM.Collect$$rtentry$$00000000) for __rt_entry
    d2f.o(x$fpl$d2f) refers (Special) to usenofp.o(x$fpl$usenofp) for __I$use$fp
    d2f.o(x$fpl$d2f) refers to fretinf.o(x$fpl$fretinf) for __fpl_fretinf
    d2f.o(x$fpl$d2f) refers to dnaninf.o(x$fpl$dnaninf) for __fpl_dnaninf
    daddsub_clz.o(x$fpl$dadd) refers (Special) to usenofp.o(x$fpl$usenofp) for __I$use$fp
    daddsub_clz.o(x$fpl$dadd) refers to daddsub_clz.o(x$fpl$dsub) for _dsub1
    daddsub_clz.o(x$fpl$dadd) refers to dretinf.o(x$fpl$dretinf) for __fpl_dretinf
    daddsub_clz.o(x$fpl$dadd) refers to dnaninf.o(x$fpl$dnaninf) for __fpl_dnaninf
    daddsub_clz.o(x$fpl$drsb) refers (Special) to usenofp.o(x$fpl$usenofp) for __I$use$fp
    daddsub_clz.o(x$fpl$drsb) refers to daddsub_clz.o(x$fpl$dadd) for _dadd1
    daddsub_clz.o(x$fpl$drsb) refers to daddsub_clz.o(x$fpl$dsub) for _dsub1
    daddsub_clz.o(x$fpl$dsub) refers (Special) to usenofp.o(x$fpl$usenofp) for __I$use$fp
    daddsub_clz.o(x$fpl$dsub) refers to daddsub_clz.o(x$fpl$dadd) for _dadd1
    daddsub_clz.o(x$fpl$dsub) refers to dnaninf.o(x$fpl$dnaninf) for __fpl_dnaninf
    ddiv.o(x$fpl$drdiv) refers (Special) to usenofp.o(x$fpl$usenofp) for __I$use$fp
    ddiv.o(x$fpl$drdiv) refers to ddiv.o(x$fpl$ddiv) for ddiv_entry
    ddiv.o(x$fpl$ddiv) refers (Special) to usenofp.o(x$fpl$usenofp) for __I$use$fp
    ddiv.o(x$fpl$ddiv) refers to dretinf.o(x$fpl$dretinf) for __fpl_dretinf
    ddiv.o(x$fpl$ddiv) refers to dnaninf.o(x$fpl$dnaninf) for __fpl_dnaninf
    dfixu.o(x$fpl$dfixu) refers (Special) to usenofp.o(x$fpl$usenofp) for __I$use$fp
    dfixu.o(x$fpl$dfixu) refers to dnaninf.o(x$fpl$dnaninf) for __fpl_dnaninf
    dfixu.o(x$fpl$dfixur) refers (Special) to usenofp.o(x$fpl$usenofp) for __I$use$fp
    dfixu.o(x$fpl$dfixur) refers to dnaninf.o(x$fpl$dnaninf) for __fpl_dnaninf
    dflt_clz.o(x$fpl$dfltu) refers (Special) to usenofp.o(x$fpl$usenofp) for __I$use$fp
    dflt_clz.o(x$fpl$dflt) refers (Special) to usenofp.o(x$fpl$usenofp) for __I$use$fp
    dflt_clz.o(x$fpl$dfltn) refers (Special) to usenofp.o(x$fpl$usenofp) for __I$use$fp
    dmul.o(x$fpl$dmul) refers (Special) to usenofp.o(x$fpl$usenofp) for __I$use$fp
    dmul.o(x$fpl$dmul) refers to dretinf.o(x$fpl$dretinf) for __fpl_dretinf
    dmul.o(x$fpl$dmul) refers to dnaninf.o(x$fpl$dnaninf) for __fpl_dnaninf
    f2d.o(x$fpl$f2d) refers (Special) to usenofp.o(x$fpl$usenofp) for __I$use$fp
    f2d.o(x$fpl$f2d) refers to fnaninf.o(x$fpl$fnaninf) for __fpl_fnaninf
    f2d.o(x$fpl$f2d) refers to dretinf.o(x$fpl$dretinf) for __fpl_dretinf
    faddsub_clz.o(x$fpl$fadd) refers (Special) to usenofp.o(x$fpl$usenofp) for __I$use$fp
    faddsub_clz.o(x$fpl$fadd) refers to faddsub_clz.o(x$fpl$fsub) for _fsub1
    faddsub_clz.o(x$fpl$fadd) refers to fretinf.o(x$fpl$fretinf) for __fpl_fretinf
    faddsub_clz.o(x$fpl$fadd) refers to fnaninf.o(x$fpl$fnaninf) for __fpl_fnaninf
    faddsub_clz.o(x$fpl$frsb) refers (Special) to usenofp.o(x$fpl$usenofp) for __I$use$fp
    faddsub_clz.o(x$fpl$frsb) refers to faddsub_clz.o(x$fpl$fadd) for _fadd1
    faddsub_clz.o(x$fpl$frsb) refers to faddsub_clz.o(x$fpl$fsub) for _fsub1
    faddsub_clz.o(x$fpl$fsub) refers (Special) to usenofp.o(x$fpl$usenofp) for __I$use$fp
    faddsub_clz.o(x$fpl$fsub) refers to faddsub_clz.o(x$fpl$fadd) for _fadd1
    faddsub_clz.o(x$fpl$fsub) refers to fnaninf.o(x$fpl$fnaninf) for __fpl_fnaninf
    fdiv.o(x$fpl$frdiv) refers (Special) to usenofp.o(x$fpl$usenofp) for __I$use$fp
    fdiv.o(x$fpl$frdiv) refers to fdiv.o(x$fpl$fdiv) for _fdiv1
    fdiv.o(x$fpl$fdiv) refers (Special) to usenofp.o(x$fpl$usenofp) for __I$use$fp
    fdiv.o(x$fpl$fdiv) refers to fretinf.o(x$fpl$fretinf) for __fpl_fretinf
    fdiv.o(x$fpl$fdiv) refers to fnaninf.o(x$fpl$fnaninf) for __fpl_fnaninf
    feqf.o(x$fpl$feqf) refers (Special) to usenofp.o(x$fpl$usenofp) for __I$use$fp
    feqf.o(x$fpl$feqf) refers to fnaninf.o(x$fpl$fnaninf) for __fpl_fnaninf
    feqf.o(x$fpl$feqf) refers to fcmpi.o(x$fpl$fcmpinf) for __fpl_fcmp_Inf
    ffix.o(x$fpl$ffix) refers (Special) to usenofp.o(x$fpl$usenofp) for __I$use$fp
    ffix.o(x$fpl$ffix) refers to fnaninf.o(x$fpl$fnaninf) for __fpl_fnaninf
    ffix.o(x$fpl$ffixr) refers (Special) to usenofp.o(x$fpl$usenofp) for __I$use$fp
    ffix.o(x$fpl$ffixr) refers to fnaninf.o(x$fpl$fnaninf) for __fpl_fnaninf
    ffixu.o(x$fpl$ffixu) refers (Special) to usenofp.o(x$fpl$usenofp) for __I$use$fp
    ffixu.o(x$fpl$ffixu) refers to fnaninf.o(x$fpl$fnaninf) for __fpl_fnaninf
    ffixu.o(x$fpl$ffixur) refers (Special) to usenofp.o(x$fpl$usenofp) for __I$use$fp
    ffixu.o(x$fpl$ffixur) refers to fnaninf.o(x$fpl$fnaninf) for __fpl_fnaninf
    fflt_clz.o(x$fpl$ffltu) refers (Special) to usenofp.o(x$fpl$usenofp) for __I$use$fp
    fflt_clz.o(x$fpl$fflt) refers (Special) to usenofp.o(x$fpl$usenofp) for __I$use$fp
    fflt_clz.o(x$fpl$ffltn) refers (Special) to usenofp.o(x$fpl$usenofp) for __I$use$fp
    fleqf.o(x$fpl$fleqf) refers (Special) to usenofp.o(x$fpl$usenofp) for __I$use$fp
    fleqf.o(x$fpl$fleqf) refers to fnaninf.o(x$fpl$fnaninf) for __fpl_fnaninf
    fleqf.o(x$fpl$fleqf) refers to fcmpi.o(x$fpl$fcmpinf) for __fpl_fcmp_Inf
    fmul.o(x$fpl$fmul) refers (Special) to usenofp.o(x$fpl$usenofp) for __I$use$fp
    fmul.o(x$fpl$fmul) refers to fretinf.o(x$fpl$fretinf) for __fpl_fretinf
    fmul.o(x$fpl$fmul) refers to fnaninf.o(x$fpl$fnaninf) for __fpl_fnaninf
    printf1.o(x$fpl$printf1) refers to _printf_fp_dec.o(.text) for _printf_fp_dec_real
    scalbn.o(x$fpl$scalbn) refers (Special) to usenofp.o(x$fpl$usenofp) for __I$use$fp
    scalbn.o(x$fpl$scalbn) refers to dcheck1.o(x$fpl$dcheck1) for __fpl_dcheck_NaN1
    scalbnf.o(x$fpl$scalbnf) refers (Special) to usenofp.o(x$fpl$usenofp) for __I$use$fp
    scalbnf.o(x$fpl$scalbnf) refers to fcheck1.o(x$fpl$fcheck1) for __fpl_fcheck_NaN1
    __rtentry.o(.ARM.Collect$$rtentry$$00000000) refers (Special) to __rtentry2.o(.ARM.Collect$$rtentry$$0000000A) for __rt_entry_li
    __rtentry.o(.ARM.Collect$$rtentry$$00000000) refers (Special) to __rtentry2.o(.ARM.Collect$$rtentry$$0000000D) for __rt_entry_main
    __rtentry.o(.ARM.Collect$$rtentry$$00000000) refers (Special) to __rtentry2.o(.ARM.Collect$$rtentry$$0000000C) for __rt_entry_postli_1
    __rtentry.o(.ARM.Collect$$rtentry$$00000000) refers (Special) to __rtentry2.o(.ARM.Collect$$rtentry$$00000009) for __rt_entry_postsh_1
    __rtentry.o(.ARM.Collect$$rtentry$$00000000) refers (Special) to __rtentry2.o(.ARM.Collect$$rtentry$$00000002) for __rt_entry_presh_1
    __rtentry.o(.ARM.Collect$$rtentry$$00000000) refers (Special) to __rtentry4.o(.ARM.Collect$$rtentry$$00000004) for __rt_entry_sh
    _printf_intcommon.o(.text) refers (Weak) to _printf_pad.o(.text) for _printf_pre_padding
    _printf_intcommon.o(.text) refers (Weak) to _printf_pad.o(.text) for _printf_pre_padding
    _printf_intcommon.o(.text) refers (Weak) to _printf_pad.o(.text) for _printf_post_padding
    _printf_fp_dec.o(.text) refers (Special) to usenofp.o(x$fpl$usenofp) for __I$use$fp
    _printf_fp_dec.o(.text) refers (Special) to lc_numeric_c.o(locale$$code) for _get_lc_numeric
    _printf_fp_dec.o(.text) refers to bigflt0.o(.text) for _btod_etento
    _printf_fp_dec.o(.text) refers to btod.o(CL$$btod_d2e) for _btod_d2e
    _printf_fp_dec.o(.text) refers to btod.o(CL$$btod_ediv) for _btod_ediv
    _printf_fp_dec.o(.text) refers to btod.o(CL$$btod_emul) for _btod_emul
    _printf_fp_dec.o(.text) refers to lludiv10.o(.text) for _ll_udiv10
    _printf_fp_dec.o(.text) refers to fpclassify.o(i.__ARM_fpclassify) for __ARM_fpclassify
    _printf_fp_dec.o(.text) refers to _printf_fp_infnan.o(.text) for _printf_fp_infnan
    _printf_fp_dec.o(.text) refers (Weak) to _printf_pad.o(.text) for _printf_pre_padding
    _printf_fp_dec.o(.text) refers (Weak) to _printf_pad.o(.text) for _printf_pre_padding
    _printf_fp_dec.o(.text) refers to rt_locale_intlibspace.o(.text) for __rt_locale
    _printf_fp_dec.o(.text) refers (Weak) to _printf_pad.o(.text) for _printf_post_padding
    _printf_char_common.o(.text) refers to __printf_flags_ss_wp.o(.text) for __printf
    _printf_char.o(.text) refers (Weak) to _printf_str.o(.text) for _printf_str
    _printf_char_file.o(.text) refers to _printf_char_common.o(.text) for _printf_char_common
    _printf_char_file.o(.text) refers to ferror.o(.text) for ferror
    _printf_char_file.o(.text) refers to usart.o(i.fputc) for fputc
    dcheck1.o(x$fpl$dcheck1) refers (Special) to usenofp.o(x$fpl$usenofp) for __I$use$fp
    dcheck1.o(x$fpl$dcheck1) refers to retnan.o(x$fpl$retnan) for __fpl_return_NaN
    dnaninf.o(x$fpl$dnaninf) refers (Special) to usenofp.o(x$fpl$usenofp) for __I$use$fp
    dretinf.o(x$fpl$dretinf) refers (Special) to usenofp.o(x$fpl$usenofp) for __I$use$fp
    fcheck1.o(x$fpl$fcheck1) refers (Special) to usenofp.o(x$fpl$usenofp) for __I$use$fp
    fcheck1.o(x$fpl$fcheck1) refers to retnan.o(x$fpl$retnan) for __fpl_return_NaN
    fcmpi.o(x$fpl$fcmpinf) refers (Special) to usenofp.o(x$fpl$usenofp) for __I$use$fp
    fnaninf.o(x$fpl$fnaninf) refers (Special) to usenofp.o(x$fpl$usenofp) for __I$use$fp
    fretinf.o(x$fpl$fretinf) refers (Special) to usenofp.o(x$fpl$usenofp) for __I$use$fp
    __rtentry2.o(.ARM.Collect$$rtentry$$00000008) refers to boardinit2.o(.text) for _platform_post_stackheap_init
    __rtentry2.o(.ARM.Collect$$rtentry$$0000000A) refers to libinit.o(.ARM.Collect$$libinit$$00000000) for __rt_lib_init
    __rtentry2.o(.ARM.Collect$$rtentry$$0000000B) refers to boardinit3.o(.text) for _platform_post_lib_init
    __rtentry2.o(.ARM.Collect$$rtentry$$0000000D) refers to main.o(i.main) for main
    __rtentry2.o(.ARM.Collect$$rtentry$$0000000D) refers to exit.o(.text) for exit
    __rtentry2.o(.ARM.exidx) refers to __rtentry2.o(.ARM.Collect$$rtentry$$00000001) for .ARM.Collect$$rtentry$$00000001
    __rtentry2.o(.ARM.exidx) refers to __rtentry2.o(.ARM.Collect$$rtentry$$00000008) for .ARM.Collect$$rtentry$$00000008
    __rtentry2.o(.ARM.exidx) refers to __rtentry2.o(.ARM.Collect$$rtentry$$0000000A) for .ARM.Collect$$rtentry$$0000000A
    __rtentry2.o(.ARM.exidx) refers to __rtentry2.o(.ARM.Collect$$rtentry$$0000000B) for .ARM.Collect$$rtentry$$0000000B
    __rtentry2.o(.ARM.exidx) refers to __rtentry2.o(.ARM.Collect$$rtentry$$0000000D) for .ARM.Collect$$rtentry$$0000000D
    __rtentry4.o(.ARM.Collect$$rtentry$$00000004) refers to sys_stackheap_outer.o(.text) for __user_setup_stackheap
    __rtentry4.o(.ARM.exidx) refers to __rtentry4.o(.ARM.Collect$$rtentry$$00000004) for .ARM.Collect$$rtentry$$00000004
    aeabi_ldiv0_sigfpe.o(.text) refers to rt_div0.o(.text) for __rt_div0
    rt_locale.o(.text) refers to rt_locale.o(.bss) for __rt_locale_data
    rt_locale_intlibspace.o(.text) refers to libspace.o(.bss) for __libspace_start
    _printf_fp_infnan.o(.text) refers (Weak) to _printf_pad.o(.text) for _printf_pre_padding
    _printf_fp_infnan.o(.text) refers (Weak) to _printf_pad.o(.text) for _printf_post_padding
    bigflt0.o(.text) refers (Special) to usenofp.o(x$fpl$usenofp) for __I$use$fp
    bigflt0.o(.text) refers to btod.o(CL$$btod_emul) for _btod_emul
    bigflt0.o(.text) refers to btod.o(CL$$btod_ediv) for _btod_ediv
    bigflt0.o(.text) refers to bigflt0.o(.constdata) for .constdata
    bigflt0.o(.constdata) refers (Special) to usenofp.o(x$fpl$usenofp) for __I$use$fp
    btod.o(CL$$btod_d2e) refers (Special) to usenofp.o(x$fpl$usenofp) for __I$use$fp
    btod.o(CL$$btod_d2e) refers to btod.o(CL$$btod_d2e_norm_op1) for _d2e_norm_op1
    btod.o(CL$$btod_d2e_norm_op1) refers (Special) to usenofp.o(x$fpl$usenofp) for __I$use$fp
    btod.o(CL$$btod_d2e_norm_op1) refers to btod.o(CL$$btod_d2e_denorm_low) for _d2e_denorm_low
    btod.o(CL$$btod_d2e_denorm_low) refers (Special) to usenofp.o(x$fpl$usenofp) for __I$use$fp
    btod.o(CL$$btod_emul) refers (Special) to usenofp.o(x$fpl$usenofp) for __I$use$fp
    btod.o(CL$$btod_emul) refers to btod.o(CL$$btod_mult_common) for __btod_mult_common
    btod.o(CL$$btod_emul) refers to btod.o(CL$$btod_e2e) for _e2e
    btod.o(CL$$btod_ediv) refers (Special) to usenofp.o(x$fpl$usenofp) for __I$use$fp
    btod.o(CL$$btod_ediv) refers to btod.o(CL$$btod_div_common) for __btod_div_common
    btod.o(CL$$btod_ediv) refers to btod.o(CL$$btod_e2e) for _e2e
    btod.o(CL$$btod_emuld) refers (Special) to usenofp.o(x$fpl$usenofp) for __I$use$fp
    btod.o(CL$$btod_emuld) refers to btod.o(CL$$btod_mult_common) for __btod_mult_common
    btod.o(CL$$btod_emuld) refers to btod.o(CL$$btod_e2d) for _e2d
    btod.o(CL$$btod_edivd) refers (Special) to usenofp.o(x$fpl$usenofp) for __I$use$fp
    btod.o(CL$$btod_edivd) refers to btod.o(CL$$btod_div_common) for __btod_div_common
    btod.o(CL$$btod_edivd) refers to btod.o(CL$$btod_e2d) for _e2d
    btod.o(CL$$btod_e2e) refers (Special) to usenofp.o(x$fpl$usenofp) for __I$use$fp
    btod.o(CL$$btod_e2d) refers (Special) to usenofp.o(x$fpl$usenofp) for __I$use$fp
    btod.o(CL$$btod_e2d) refers to btod.o(CL$$btod_e2e) for _e2e
    btod.o(CL$$btod_mult_common) refers (Special) to usenofp.o(x$fpl$usenofp) for __I$use$fp
    btod.o(CL$$btod_div_common) refers (Special) to usenofp.o(x$fpl$usenofp) for __I$use$fp
    lc_numeric_c.o(locale$$data) refers (Special) to libinit2.o(.ARM.Collect$$libinit$$00000016) for __rt_lib_init_lc_numeric_2
    lc_numeric_c.o(locale$$code) refers (Special) to libinit2.o(.ARM.Collect$$libinit$$00000016) for __rt_lib_init_lc_numeric_2
    lc_numeric_c.o(locale$$code) refers to strcmpv7m.o(.text) for strcmp
    lc_numeric_c.o(locale$$code) refers to lc_numeric_c.o(locale$$data) for __lcnum_c_name
    istatus.o(x$fpl$ieeestatus) refers (Special) to usenofp.o(x$fpl$usenofp) for __I$use$fp
    retnan.o(x$fpl$retnan) refers (Special) to usenofp.o(x$fpl$usenofp) for __I$use$fp
    retnan.o(x$fpl$retnan) refers to trapv.o(x$fpl$trapveneer) for __fpl_cmpreturn
    fpclassify.o(i.__ARM_fpclassify) refers (Special) to usenofp.o(x$fpl$usenofp) for __I$use$fp
    libspace.o(.text) refers to libspace.o(.bss) for __libspace_start
    sys_stackheap_outer.o(.text) refers to libspace.o(.text) for __user_perproc_libspace
    sys_stackheap_outer.o(.text) refers to startup_stm32f10x_hd.o(.text) for __user_initial_stackheap
    rt_div0.o(.text) refers to defsig_fpe_outer.o(.text) for __rt_SIGFPE
    exit.o(.text) refers to rtexit.o(.ARM.Collect$$rtexit$$00000000) for __rt_exit
    libinit.o(.ARM.Collect$$libinit$$00000000) refers (Special) to libinit2.o(.ARM.Collect$$libinit$$0000002E) for __rt_lib_init_alloca_1
    libinit.o(.ARM.Collect$$libinit$$00000000) refers (Special) to libinit2.o(.ARM.Collect$$libinit$$0000002C) for __rt_lib_init_argv_1
    libinit.o(.ARM.Collect$$libinit$$00000000) refers (Special) to libinit2.o(.ARM.Collect$$libinit$$0000001B) for __rt_lib_init_atexit_1
    libinit.o(.ARM.Collect$$libinit$$00000000) refers (Special) to libinit2.o(.ARM.Collect$$libinit$$00000021) for __rt_lib_init_clock_1
    libinit.o(.ARM.Collect$$libinit$$00000000) refers (Special) to libinit2.o(.ARM.Collect$$libinit$$00000032) for __rt_lib_init_cpp_1
    libinit.o(.ARM.Collect$$libinit$$00000000) refers (Special) to libinit2.o(.ARM.Collect$$libinit$$00000030) for __rt_lib_init_exceptions_1
    libinit.o(.ARM.Collect$$libinit$$00000000) refers (Special) to libinit2.o(.ARM.Collect$$libinit$$00000002) for __rt_lib_init_fp_1
    libinit.o(.ARM.Collect$$libinit$$00000000) refers (Special) to libinit2.o(.ARM.Collect$$libinit$$0000001F) for __rt_lib_init_fp_trap_1
    libinit.o(.ARM.Collect$$libinit$$00000000) refers (Special) to libinit2.o(.ARM.Collect$$libinit$$00000023) for __rt_lib_init_getenv_1
    libinit.o(.ARM.Collect$$libinit$$00000000) refers (Special) to libinit2.o(.ARM.Collect$$libinit$$0000000A) for __rt_lib_init_heap_1
    libinit.o(.ARM.Collect$$libinit$$00000000) refers (Special) to libinit2.o(.ARM.Collect$$libinit$$00000011) for __rt_lib_init_lc_collate_1
    libinit.o(.ARM.Collect$$libinit$$00000000) refers (Special) to libinit2.o(.ARM.Collect$$libinit$$00000013) for __rt_lib_init_lc_ctype_1
    libinit.o(.ARM.Collect$$libinit$$00000000) refers (Special) to libinit2.o(.ARM.Collect$$libinit$$00000015) for __rt_lib_init_lc_monetary_1
    libinit.o(.ARM.Collect$$libinit$$00000000) refers (Special) to libinit2.o(.ARM.Collect$$libinit$$00000017) for __rt_lib_init_lc_numeric_1
    libinit.o(.ARM.Collect$$libinit$$00000000) refers (Special) to libinit2.o(.ARM.Collect$$libinit$$00000019) for __rt_lib_init_lc_time_1
    libinit.o(.ARM.Collect$$libinit$$00000000) refers (Special) to libinit2.o(.ARM.Collect$$libinit$$00000004) for __rt_lib_init_preinit_1
    libinit.o(.ARM.Collect$$libinit$$00000000) refers (Special) to libinit2.o(.ARM.Collect$$libinit$$0000000E) for __rt_lib_init_rand_1
    libinit.o(.ARM.Collect$$libinit$$00000000) refers (Special) to libinit2.o(.ARM.Collect$$libinit$$00000033) for __rt_lib_init_return
    libinit.o(.ARM.Collect$$libinit$$00000000) refers (Special) to libinit2.o(.ARM.Collect$$libinit$$0000001D) for __rt_lib_init_signal_1
    libinit.o(.ARM.Collect$$libinit$$00000000) refers (Special) to libinit2.o(.ARM.Collect$$libinit$$00000025) for __rt_lib_init_stdio_1
    libinit.o(.ARM.Collect$$libinit$$00000000) refers (Special) to libinit2.o(.ARM.Collect$$libinit$$0000000C) for __rt_lib_init_user_alloc_1
    libinit2.o(.ARM.Collect$$libinit$$0000000F) refers (Weak) to rt_locale_intlibspace.o(.text) for __rt_locale
    libinit2.o(.ARM.Collect$$libinit$$00000010) refers to libinit2.o(.ARM.Collect$$libinit$$0000000F) for .ARM.Collect$$libinit$$0000000F
    libinit2.o(.ARM.Collect$$libinit$$00000012) refers to libinit2.o(.ARM.Collect$$libinit$$0000000F) for .ARM.Collect$$libinit$$0000000F
    libinit2.o(.ARM.Collect$$libinit$$00000014) refers to libinit2.o(.ARM.Collect$$libinit$$0000000F) for .ARM.Collect$$libinit$$0000000F
    libinit2.o(.ARM.Collect$$libinit$$00000016) refers to libinit2.o(.ARM.Collect$$libinit$$0000000F) for .ARM.Collect$$libinit$$0000000F
    libinit2.o(.ARM.Collect$$libinit$$00000016) refers (Weak) to lc_numeric_c.o(locale$$code) for _get_lc_numeric
    libinit2.o(.ARM.Collect$$libinit$$00000018) refers to libinit2.o(.ARM.Collect$$libinit$$0000000F) for .ARM.Collect$$libinit$$0000000F
    libinit2.o(.ARM.Collect$$libinit$$00000026) refers to argv_veneer.o(.emb_text) for __ARM_argv_veneer
    libinit2.o(.ARM.Collect$$libinit$$00000027) refers to argv_veneer.o(.emb_text) for __ARM_argv_veneer
    trapv.o(x$fpl$trapveneer) refers (Special) to usenofp.o(x$fpl$usenofp) for __I$use$fp
    rtexit.o(.ARM.Collect$$rtexit$$00000000) refers (Special) to rtexit2.o(.ARM.Collect$$rtexit$$00000004) for __rt_exit_exit
    rtexit.o(.ARM.Collect$$rtexit$$00000000) refers (Special) to rtexit2.o(.ARM.Collect$$rtexit$$00000003) for __rt_exit_ls
    rtexit.o(.ARM.Collect$$rtexit$$00000000) refers (Special) to rtexit2.o(.ARM.Collect$$rtexit$$00000002) for __rt_exit_prels_1
    rtexit.o(.ARM.exidx) refers (Special) to rtexit2.o(.ARM.Collect$$rtexit$$00000004) for __rt_exit_exit
    rtexit.o(.ARM.exidx) refers (Special) to rtexit2.o(.ARM.Collect$$rtexit$$00000003) for __rt_exit_ls
    rtexit.o(.ARM.exidx) refers (Special) to rtexit2.o(.ARM.Collect$$rtexit$$00000002) for __rt_exit_prels_1
    rtexit.o(.ARM.exidx) refers to rtexit.o(.ARM.Collect$$rtexit$$00000000) for .ARM.Collect$$rtexit$$00000000
    defsig_fpe_outer.o(.text) refers to defsig_fpe_inner.o(.text) for __rt_SIGFPE_inner
    defsig_fpe_outer.o(.text) refers to defsig_exit.o(.text) for __sig_exit
    defsig_fpe_formal.o(.text) refers to rt_raise.o(.text) for __rt_raise
    argv_veneer.o(.emb_text) refers to no_argv.o(.text) for __ARM_get_argv
    rtexit2.o(.ARM.Collect$$rtexit$$00000003) refers to libshutdown.o(.ARM.Collect$$libshutdown$$00000000) for __rt_lib_shutdown
    rtexit2.o(.ARM.Collect$$rtexit$$00000004) refers to usart.o(i._sys_exit) for _sys_exit
    rtexit2.o(.ARM.exidx) refers to rtexit2.o(.ARM.Collect$$rtexit$$00000001) for .ARM.Collect$$rtexit$$00000001
    rtexit2.o(.ARM.exidx) refers to rtexit2.o(.ARM.Collect$$rtexit$$00000003) for .ARM.Collect$$rtexit$$00000003
    rtexit2.o(.ARM.exidx) refers to rtexit2.o(.ARM.Collect$$rtexit$$00000004) for .ARM.Collect$$rtexit$$00000004
    rt_raise.o(.text) refers to __raise.o(.text) for __raise
    rt_raise.o(.text) refers to usart.o(i._sys_exit) for _sys_exit
    defsig_exit.o(.text) refers to usart.o(i._sys_exit) for _sys_exit
    defsig_fpe_inner.o(.text) refers to defsig_general.o(.text) for __default_signal_display
    _get_argv_nomalloc.o(.text) refers (Special) to hrguard.o(.text) for __heap_region$guard
    _get_argv_nomalloc.o(.text) refers to defsig_rtmem_outer.o(.text) for __rt_SIGRTMEM
    _get_argv_nomalloc.o(.text) refers to sys_command.o(.text) for _sys_command_string
    sys_command.o(.text) refers (Special) to use_no_semi.o(.text) for __I$use$semihosting
    sys_command.o(.text) refers (Special) to indicate_semi.o(.text) for __semihosting_library_function
    __raise.o(.text) refers to defsig.o(CL$$defsig) for __default_signal_handler
    defsig_general.o(.text) refers to sys_wrch.o(.text) for _ttywrch
    defsig_rtmem_outer.o(.text) refers to defsig_rtmem_inner.o(.text) for __rt_SIGRTMEM_inner
    defsig_rtmem_outer.o(.text) refers to defsig_exit.o(.text) for __sig_exit
    defsig_rtmem_formal.o(.text) refers to rt_raise.o(.text) for __rt_raise
    libshutdown.o(.ARM.Collect$$libshutdown$$00000000) refers (Special) to libshutdown2.o(.ARM.Collect$$libshutdown$$00000002) for __rt_lib_shutdown_cpp_1
    libshutdown.o(.ARM.Collect$$libshutdown$$00000000) refers (Special) to libshutdown2.o(.ARM.Collect$$libshutdown$$00000007) for __rt_lib_shutdown_fp_trap_1
    libshutdown.o(.ARM.Collect$$libshutdown$$00000000) refers (Special) to libshutdown2.o(.ARM.Collect$$libshutdown$$0000000F) for __rt_lib_shutdown_heap_1
    libshutdown.o(.ARM.Collect$$libshutdown$$00000000) refers (Special) to libshutdown2.o(.ARM.Collect$$libshutdown$$00000010) for __rt_lib_shutdown_return
    libshutdown.o(.ARM.Collect$$libshutdown$$00000000) refers (Special) to libshutdown2.o(.ARM.Collect$$libshutdown$$0000000A) for __rt_lib_shutdown_signal_1
    libshutdown.o(.ARM.Collect$$libshutdown$$00000000) refers (Special) to libshutdown2.o(.ARM.Collect$$libshutdown$$00000004) for __rt_lib_shutdown_stdio_1
    libshutdown.o(.ARM.Collect$$libshutdown$$00000000) refers (Special) to libshutdown2.o(.ARM.Collect$$libshutdown$$0000000C) for __rt_lib_shutdown_user_alloc_1
    sys_wrch.o(.text) refers (Special) to use_no_semi.o(.text) for __I$use$semihosting
    sys_wrch.o(.text) refers (Special) to indicate_semi.o(.text) for __semihosting_library_function
    defsig_rtmem_inner.o(.text) refers to defsig_general.o(.text) for __default_signal_display
    defsig.o(CL$$defsig) refers to defsig_fpe_inner.o(.text) for __rt_SIGFPE_inner
    defsig.o(CL$$defsig) refers to defsig_rtmem_inner.o(.text) for __rt_SIGRTMEM_inner
    defsig_abrt_inner.o(.text) refers to defsig_general.o(.text) for __default_signal_display
    defsig_rtred_inner.o(.text) refers to defsig_general.o(.text) for __default_signal_display
    defsig_stak_inner.o(.text) refers to defsig_general.o(.text) for __default_signal_display
    defsig_pvfn_inner.o(.text) refers to defsig_general.o(.text) for __default_signal_display
    defsig_cppl_inner.o(.text) refers to defsig_general.o(.text) for __default_signal_display
    defsig_segv_inner.o(.text) refers to defsig_general.o(.text) for __default_signal_display
    defsig_other.o(.text) refers to defsig_general.o(.text) for __default_signal_display


==============================================================================

Removing Unused input sections from the image.

    Removing main.o(.bss), (20480 bytes).
    Removing main.o(.conststring), (60 bytes).
    Removing main.o(.data), (28 bytes).
    Removing system_stm32f10x.o(i.SystemCoreClockUpdate), (104 bytes).
    Removing lcd.o(i.LCD_BGR2RGB), (18 bytes).
    Removing lcd.o(i.LCD_Color_Fill), (88 bytes).
    Removing lcd.o(i.LCD_DisplayOff), (36 bytes).
    Removing lcd.o(i.LCD_DisplayOn), (36 bytes).
    Removing lcd.o(i.LCD_DrawLine), (150 bytes).
    Removing lcd.o(i.LCD_DrawPoint), (28 bytes).
    Removing lcd.o(i.LCD_DrawRectangle), (56 bytes).
    Removing lcd.o(i.LCD_Draw_Circle), (176 bytes).
    Removing lcd.o(i.LCD_Pow), (16 bytes).
    Removing lcd.o(i.LCD_ReadPoint), (104 bytes).
    Removing lcd.o(i.LCD_ReadReg), (24 bytes).
    Removing lcd.o(i.LCD_Set_Window), (304 bytes).
    Removing lcd.o(i.LCD_ShowNum), (118 bytes).
    Removing lcd.o(i.LCD_ShowxNum), (134 bytes).
    Removing lcd.o(i.LCD_WR_DATA), (12 bytes).
    Removing lcd.o(i.LCD_WR_REG), (12 bytes).
    Removing lcd.o(i.LCD_WriteRAM), (12 bytes).
    Removing lcd.o(i.opt_delay), (8 bytes).
    Removing w25qxx.o(i.W25QXX_Erase_Chip), (44 bytes).
    Removing w25qxx.o(i.W25QXX_PowerDown), (40 bytes).
    Removing w25qxx.o(i.W25QXX_WAKEUP), (40 bytes).
    Removing w25qxx.o(i.W25QXX_Write_Disable), (32 bytes).
    Removing w25qxx.o(i.W25QXX_Write_SR), (40 bytes).
    Removing sdio_sdcard.o(i.SD_GetState), (26 bytes).
    Removing sdio_sdcard.o(i.SD_PowerOFF), (12 bytes).
    Removing sdio_sdcard.o(i.SD_SendStatus), (72 bytes).
    Removing timer.o(i.TIM6_Int_Init), (96 bytes).
    Removing tpad.o(i.TIM5_CH2_Cap_Init), (128 bytes).
    Removing tpad.o(i.TPAD_Get_MaxVal), (28 bytes).
    Removing tpad.o(i.TPAD_Get_Val), (60 bytes).
    Removing tpad.o(i.TPAD_Init), (168 bytes).
    Removing tpad.o(i.TPAD_Reset), (96 bytes).
    Removing tpad.o(i.TPAD_Scan), (64 bytes).
    Removing tpad.o(.data), (4 bytes).
    Removing dma.o(i.MYDMA_SRAMLCD_Enable), (44 bytes).
    Removing ov2640.o(i.JTAG_Set), (40 bytes).
    Removing ov2640.o(.constdata), (354 bytes).
    Removing oled.o(i.OLED_Pow), (14 bytes).
    Removing oled.o(i.OLED_ShowBinNum), (58 bytes).
    Removing oled.o(i.OLED_ShowHexNum), (68 bytes).
    Removing oled.o(i.OLED_ShowNum), (66 bytes).
    Removing oled.o(i.OLED_ShowSignedNum), (86 bytes).
    Removing ds18b20.o(i.DS18B20_Init), (64 bytes).
    Removing ds18b20.o(i.DS18B20_Start), (26 bytes).
    Removing sys.o(.emb_text), (6 bytes).
    Removing sys.o(i.WFI_SET), (4 bytes).
    Removing delay1.o(i.delay1_us), (18 bytes).
    Removing bsp_usart1.o(i.USART1_Config), (124 bytes).
    Removing core_cm3.o(.emb_text), (32 bytes).
    Removing misc.o(i.NVIC_SetVectorTable), (20 bytes).
    Removing misc.o(i.NVIC_SystemLPConfig), (24 bytes).
    Removing stm32f10x_fsmc.o(i.FSMC_ClearFlag), (38 bytes).
    Removing stm32f10x_fsmc.o(i.FSMC_ClearITPendingBit), (42 bytes).
    Removing stm32f10x_fsmc.o(i.FSMC_GetECC), (18 bytes).
    Removing stm32f10x_fsmc.o(i.FSMC_GetFlagStatus), (40 bytes).
    Removing stm32f10x_fsmc.o(i.FSMC_GetITStatus), (48 bytes).
    Removing stm32f10x_fsmc.o(i.FSMC_ITConfig), (72 bytes).
    Removing stm32f10x_fsmc.o(i.FSMC_NANDCmd), (56 bytes).
    Removing stm32f10x_fsmc.o(i.FSMC_NANDDeInit), (40 bytes).
    Removing stm32f10x_fsmc.o(i.FSMC_NANDECCCmd), (56 bytes).
    Removing stm32f10x_fsmc.o(i.FSMC_NANDInit), (104 bytes).
    Removing stm32f10x_fsmc.o(i.FSMC_NANDStructInit), (54 bytes).
    Removing stm32f10x_fsmc.o(i.FSMC_NORSRAMDeInit), (38 bytes).
    Removing stm32f10x_fsmc.o(i.FSMC_NORSRAMStructInit), (98 bytes).
    Removing stm32f10x_fsmc.o(i.FSMC_PCCARDCmd), (32 bytes).
    Removing stm32f10x_fsmc.o(i.FSMC_PCCARDDeInit), (26 bytes).
    Removing stm32f10x_fsmc.o(i.FSMC_PCCARDInit), (102 bytes).
    Removing stm32f10x_fsmc.o(i.FSMC_PCCARDStructInit), (60 bytes).
    Removing stm32f10x_gpio.o(i.GPIO_AFIODeInit), (22 bytes).
    Removing stm32f10x_gpio.o(i.GPIO_DeInit), (180 bytes).
    Removing stm32f10x_gpio.o(i.GPIO_ETH_MediaInterfaceConfig), (12 bytes).
    Removing stm32f10x_gpio.o(i.GPIO_EXTILineConfig), (40 bytes).
    Removing stm32f10x_gpio.o(i.GPIO_EventOutputCmd), (12 bytes).
    Removing stm32f10x_gpio.o(i.GPIO_EventOutputConfig), (28 bytes).
    Removing stm32f10x_gpio.o(i.GPIO_PinLockConfig), (16 bytes).
    Removing stm32f10x_gpio.o(i.GPIO_ReadInputData), (6 bytes).
    Removing stm32f10x_gpio.o(i.GPIO_ReadOutputData), (6 bytes).
    Removing stm32f10x_gpio.o(i.GPIO_ReadOutputDataBit), (14 bytes).
    Removing stm32f10x_gpio.o(i.GPIO_StructInit), (16 bytes).
    Removing stm32f10x_gpio.o(i.GPIO_Write), (4 bytes).
    Removing stm32f10x_rcc.o(i.RCC_APB1PeriphResetCmd), (24 bytes).
    Removing stm32f10x_rcc.o(i.RCC_APB2PeriphResetCmd), (24 bytes).
    Removing stm32f10x_rcc.o(i.RCC_AdjustHSICalibrationValue), (20 bytes).
    Removing stm32f10x_rcc.o(i.RCC_BackupResetCmd), (12 bytes).
    Removing stm32f10x_rcc.o(i.RCC_ClearFlag), (16 bytes).
    Removing stm32f10x_rcc.o(i.RCC_ClearITPendingBit), (12 bytes).
    Removing stm32f10x_rcc.o(i.RCC_ClockSecuritySystemCmd), (12 bytes).
    Removing stm32f10x_rcc.o(i.RCC_DeInit), (64 bytes).
    Removing stm32f10x_rcc.o(i.RCC_GetFlagStatus), (48 bytes).
    Removing stm32f10x_rcc.o(i.RCC_GetITStatus), (20 bytes).
    Removing stm32f10x_rcc.o(i.RCC_GetSYSCLKSource), (16 bytes).
    Removing stm32f10x_rcc.o(i.RCC_HCLKConfig), (20 bytes).
    Removing stm32f10x_rcc.o(i.RCC_HSEConfig), (52 bytes).
    Removing stm32f10x_rcc.o(i.RCC_HSICmd), (12 bytes).
    Removing stm32f10x_rcc.o(i.RCC_ITConfig), (24 bytes).
    Removing stm32f10x_rcc.o(i.RCC_LSEConfig), (32 bytes).
    Removing stm32f10x_rcc.o(i.RCC_LSICmd), (12 bytes).
    Removing stm32f10x_rcc.o(i.RCC_MCOConfig), (12 bytes).
    Removing stm32f10x_rcc.o(i.RCC_PCLK1Config), (20 bytes).
    Removing stm32f10x_rcc.o(i.RCC_PCLK2Config), (20 bytes).
    Removing stm32f10x_rcc.o(i.RCC_PLLCmd), (12 bytes).
    Removing stm32f10x_rcc.o(i.RCC_PLLConfig), (20 bytes).
    Removing stm32f10x_rcc.o(i.RCC_RTCCLKCmd), (12 bytes).
    Removing stm32f10x_rcc.o(i.RCC_RTCCLKConfig), (16 bytes).
    Removing stm32f10x_rcc.o(i.RCC_SYSCLKConfig), (20 bytes).
    Removing stm32f10x_rcc.o(i.RCC_USBCLKConfig), (12 bytes).
    Removing stm32f10x_rcc.o(i.RCC_WaitForHSEStartUp), (44 bytes).
    Removing stm32f10x_spi.o(i.I2S_Cmd), (20 bytes).
    Removing stm32f10x_spi.o(i.I2S_Init), (150 bytes).
    Removing stm32f10x_spi.o(i.I2S_StructInit), (18 bytes).
    Removing stm32f10x_spi.o(i.SPI_BiDirectionalLineConfig), (22 bytes).
    Removing stm32f10x_spi.o(i.SPI_CalculateCRC), (20 bytes).
    Removing stm32f10x_spi.o(i.SPI_DataSizeConfig), (16 bytes).
    Removing stm32f10x_spi.o(i.SPI_GetCRC), (12 bytes).
    Removing stm32f10x_spi.o(i.SPI_GetCRCPolynomial), (4 bytes).
    Removing stm32f10x_spi.o(i.SPI_I2S_ClearFlag), (6 bytes).
    Removing stm32f10x_spi.o(i.SPI_I2S_ClearITPendingBit), (14 bytes).
    Removing stm32f10x_spi.o(i.SPI_I2S_DMACmd), (16 bytes).
    Removing stm32f10x_spi.o(i.SPI_I2S_DeInit), (84 bytes).
    Removing stm32f10x_spi.o(i.SPI_I2S_GetITStatus), (44 bytes).
    Removing stm32f10x_spi.o(i.SPI_I2S_ITConfig), (24 bytes).
    Removing stm32f10x_spi.o(i.SPI_NSSInternalSoftwareConfig), (24 bytes).
    Removing stm32f10x_spi.o(i.SPI_SSOutputCmd), (20 bytes).
    Removing stm32f10x_spi.o(i.SPI_StructInit), (24 bytes).
    Removing stm32f10x_spi.o(i.SPI_TransmitCRC), (10 bytes).
    Removing stm32f10x_usart.o(i.USART_ClearFlag), (6 bytes).
    Removing stm32f10x_usart.o(i.USART_ClearITPendingBit), (12 bytes).
    Removing stm32f10x_usart.o(i.USART_ClockInit), (30 bytes).
    Removing stm32f10x_usart.o(i.USART_ClockStructInit), (12 bytes).
    Removing stm32f10x_usart.o(i.USART_DMACmd), (16 bytes).
    Removing stm32f10x_usart.o(i.USART_DeInit), (116 bytes).
    Removing stm32f10x_usart.o(i.USART_HalfDuplexCmd), (20 bytes).
    Removing stm32f10x_usart.o(i.USART_IrDACmd), (20 bytes).
    Removing stm32f10x_usart.o(i.USART_IrDAConfig), (16 bytes).
    Removing stm32f10x_usart.o(i.USART_LINBreakDetectLengthConfig), (16 bytes).
    Removing stm32f10x_usart.o(i.USART_LINCmd), (20 bytes).
    Removing stm32f10x_usart.o(i.USART_OneBitMethodCmd), (20 bytes).
    Removing stm32f10x_usart.o(i.USART_OverSampling8Cmd), (20 bytes).
    Removing stm32f10x_usart.o(i.USART_ReceiverWakeUpCmd), (20 bytes).
    Removing stm32f10x_usart.o(i.USART_SendBreak), (10 bytes).
    Removing stm32f10x_usart.o(i.USART_SetAddress), (16 bytes).
    Removing stm32f10x_usart.o(i.USART_SetGuardTime), (16 bytes).
    Removing stm32f10x_usart.o(i.USART_SetPrescaler), (16 bytes).
    Removing stm32f10x_usart.o(i.USART_SmartCardCmd), (20 bytes).
    Removing stm32f10x_usart.o(i.USART_SmartCardNACKCmd), (20 bytes).
    Removing stm32f10x_usart.o(i.USART_StructInit), (22 bytes).
    Removing stm32f10x_usart.o(i.USART_WakeUpConfig), (16 bytes).
    Removing stm32f10x_tim.o(i.TI1_Config), (108 bytes).
    Removing stm32f10x_tim.o(i.TI2_Config), (124 bytes).
    Removing stm32f10x_tim.o(i.TIM_ARRPreloadConfig), (20 bytes).
    Removing stm32f10x_tim.o(i.TIM_BDTRConfig), (34 bytes).
    Removing stm32f10x_tim.o(i.TIM_BDTRStructInit), (18 bytes).
    Removing stm32f10x_tim.o(i.TIM_CCPreloadControl), (20 bytes).
    Removing stm32f10x_tim.o(i.TIM_CCxCmd), (22 bytes).
    Removing stm32f10x_tim.o(i.TIM_CCxNCmd), (22 bytes).
    Removing stm32f10x_tim.o(i.TIM_ClearOC1Ref), (12 bytes).
    Removing stm32f10x_tim.o(i.TIM_ClearOC2Ref), (20 bytes).
    Removing stm32f10x_tim.o(i.TIM_ClearOC3Ref), (12 bytes).
    Removing stm32f10x_tim.o(i.TIM_ClearOC4Ref), (20 bytes).
    Removing stm32f10x_tim.o(i.TIM_CounterModeConfig), (12 bytes).
    Removing stm32f10x_tim.o(i.TIM_CtrlPWMOutputs), (22 bytes).
    Removing stm32f10x_tim.o(i.TIM_DMACmd), (16 bytes).
    Removing stm32f10x_tim.o(i.TIM_DMAConfig), (8 bytes).
    Removing stm32f10x_tim.o(i.TIM_DeInit), (368 bytes).
    Removing stm32f10x_tim.o(i.TIM_ETRClockMode1Config), (18 bytes).
    Removing stm32f10x_tim.o(i.TIM_ETRClockMode2Config), (18 bytes).
    Removing stm32f10x_tim.o(i.TIM_ETRConfig), (24 bytes).
    Removing stm32f10x_tim.o(i.TIM_EncoderInterfaceConfig), (50 bytes).
    Removing stm32f10x_tim.o(i.TIM_ForcedOC1Config), (12 bytes).
    Removing stm32f10x_tim.o(i.TIM_ForcedOC2Config), (20 bytes).
    Removing stm32f10x_tim.o(i.TIM_ForcedOC3Config), (12 bytes).
    Removing stm32f10x_tim.o(i.TIM_ForcedOC4Config), (20 bytes).
    Removing stm32f10x_tim.o(i.TIM_GenerateEvent), (4 bytes).
    Removing stm32f10x_tim.o(i.TIM_GetCapture1), (4 bytes).
    Removing stm32f10x_tim.o(i.TIM_GetCapture2), (4 bytes).
    Removing stm32f10x_tim.o(i.TIM_GetCapture3), (4 bytes).
    Removing stm32f10x_tim.o(i.TIM_GetCapture4), (6 bytes).
    Removing stm32f10x_tim.o(i.TIM_GetPrescaler), (4 bytes).
    Removing stm32f10x_tim.o(i.TIM_ICInit), (300 bytes).
    Removing stm32f10x_tim.o(i.TIM_ICStructInit), (16 bytes).
    Removing stm32f10x_tim.o(i.TIM_ITRxExternalClockConfig), (18 bytes).
    Removing stm32f10x_tim.o(i.TIM_InternalClockConfig), (10 bytes).
    Removing stm32f10x_tim.o(i.TIM_OC1FastConfig), (12 bytes).
    Removing stm32f10x_tim.o(i.TIM_OC1Init), (128 bytes).
    Removing stm32f10x_tim.o(i.TIM_OC1NPolarityConfig), (12 bytes).
    Removing stm32f10x_tim.o(i.TIM_OC1PolarityConfig), (12 bytes).
    Removing stm32f10x_tim.o(i.TIM_OC1PreloadConfig), (12 bytes).
    Removing stm32f10x_tim.o(i.TIM_OC2FastConfig), (20 bytes).
    Removing stm32f10x_tim.o(i.TIM_OC2Init), (128 bytes).
    Removing stm32f10x_tim.o(i.TIM_OC2NPolarityConfig), (20 bytes).
    Removing stm32f10x_tim.o(i.TIM_OC2PolarityConfig), (20 bytes).
    Removing stm32f10x_tim.o(i.TIM_OC2PreloadConfig), (20 bytes).
    Removing stm32f10x_tim.o(i.TIM_OC3FastConfig), (12 bytes).
    Removing stm32f10x_tim.o(i.TIM_OC3Init), (124 bytes).
    Removing stm32f10x_tim.o(i.TIM_OC3NPolarityConfig), (20 bytes).
    Removing stm32f10x_tim.o(i.TIM_OC3PolarityConfig), (20 bytes).
    Removing stm32f10x_tim.o(i.TIM_OC3PreloadConfig), (12 bytes).
    Removing stm32f10x_tim.o(i.TIM_OC4FastConfig), (20 bytes).
    Removing stm32f10x_tim.o(i.TIM_OC4Init), (100 bytes).
    Removing stm32f10x_tim.o(i.TIM_OC4PolarityConfig), (20 bytes).
    Removing stm32f10x_tim.o(i.TIM_OC4PreloadConfig), (20 bytes).
    Removing stm32f10x_tim.o(i.TIM_OCStructInit), (20 bytes).
    Removing stm32f10x_tim.o(i.TIM_PWMIConfig), (108 bytes).
    Removing stm32f10x_tim.o(i.TIM_PrescalerConfig), (6 bytes).
    Removing stm32f10x_tim.o(i.TIM_SelectCCDMA), (20 bytes).
    Removing stm32f10x_tim.o(i.TIM_SelectCOM), (20 bytes).
    Removing stm32f10x_tim.o(i.TIM_SelectHallSensor), (20 bytes).
    Removing stm32f10x_tim.o(i.TIM_SelectInputTrigger), (12 bytes).
    Removing stm32f10x_tim.o(i.TIM_SelectMasterSlaveMode), (16 bytes).
    Removing stm32f10x_tim.o(i.TIM_SelectOCxM), (70 bytes).
    Removing stm32f10x_tim.o(i.TIM_SelectOnePulseMode), (16 bytes).
    Removing stm32f10x_tim.o(i.TIM_SelectOutputTrigger), (16 bytes).
    Removing stm32f10x_tim.o(i.TIM_SelectSlaveMode), (16 bytes).
    Removing stm32f10x_tim.o(i.TIM_SetClockDivision), (16 bytes).
    Removing stm32f10x_tim.o(i.TIM_SetCompare1), (4 bytes).
    Removing stm32f10x_tim.o(i.TIM_SetCompare2), (4 bytes).
    Removing stm32f10x_tim.o(i.TIM_SetCompare3), (4 bytes).
    Removing stm32f10x_tim.o(i.TIM_SetCompare4), (6 bytes).
    Removing stm32f10x_tim.o(i.TIM_SetIC1Prescaler), (16 bytes).
    Removing stm32f10x_tim.o(i.TIM_SetIC2Prescaler), (24 bytes).
    Removing stm32f10x_tim.o(i.TIM_SetIC3Prescaler), (16 bytes).
    Removing stm32f10x_tim.o(i.TIM_SetIC4Prescaler), (24 bytes).
    Removing stm32f10x_tim.o(i.TIM_TIxExternalClockConfig), (46 bytes).
    Removing stm32f10x_tim.o(i.TIM_TimeBaseStructInit), (18 bytes).
    Removing stm32f10x_tim.o(i.TIM_UpdateDisableConfig), (20 bytes).
    Removing stm32f10x_tim.o(i.TIM_UpdateRequestConfig), (20 bytes).
    Removing stm32f10x_exti.o(i.EXTI_ClearFlag), (12 bytes).
    Removing stm32f10x_exti.o(i.EXTI_ClearITPendingBit), (12 bytes).
    Removing stm32f10x_exti.o(i.EXTI_DeInit), (36 bytes).
    Removing stm32f10x_exti.o(i.EXTI_GenerateSWInterrupt), (16 bytes).
    Removing stm32f10x_exti.o(i.EXTI_GetFlagStatus), (20 bytes).
    Removing stm32f10x_exti.o(i.EXTI_GetITStatus), (32 bytes).
    Removing stm32f10x_exti.o(i.EXTI_Init), (112 bytes).
    Removing stm32f10x_exti.o(i.EXTI_StructInit), (14 bytes).
    Removing stm32f10x_dma.o(i.DMA_ClearFlag), (24 bytes).
    Removing stm32f10x_dma.o(i.DMA_ClearITPendingBit), (24 bytes).
    Removing stm32f10x_dma.o(i.DMA_GetCurrDataCounter), (6 bytes).
    Removing stm32f10x_dma.o(i.DMA_GetFlagStatus), (32 bytes).
    Removing stm32f10x_dma.o(i.DMA_GetITStatus), (32 bytes).
    Removing stm32f10x_dma.o(i.DMA_ITConfig), (16 bytes).
    Removing stm32f10x_dma.o(i.DMA_SetCurrDataCounter), (4 bytes).
    Removing stm32f10x_dma.o(i.DMA_StructInit), (26 bytes).
    Removing stm32f10x_sdio.o(i.SDIO_CEATAITCmd), (16 bytes).
    Removing stm32f10x_sdio.o(i.SDIO_ClearITPendingBit), (12 bytes).
    Removing stm32f10x_sdio.o(i.SDIO_CmdStructInit), (14 bytes).
    Removing stm32f10x_sdio.o(i.SDIO_CommandCompletionCmd), (12 bytes).
    Removing stm32f10x_sdio.o(i.SDIO_DataStructInit), (20 bytes).
    Removing stm32f10x_sdio.o(i.SDIO_GetCommandResponse), (12 bytes).
    Removing stm32f10x_sdio.o(i.SDIO_GetDataCounter), (12 bytes).
    Removing stm32f10x_sdio.o(i.SDIO_GetFIFOCount), (12 bytes).
    Removing stm32f10x_sdio.o(i.SDIO_GetITStatus), (20 bytes).
    Removing stm32f10x_sdio.o(i.SDIO_GetResponse), (16 bytes).
    Removing stm32f10x_sdio.o(i.SDIO_ITConfig), (24 bytes).
    Removing stm32f10x_sdio.o(i.SDIO_SendCEATACmd), (12 bytes).
    Removing stm32f10x_sdio.o(i.SDIO_SendSDIOSuspendCmd), (12 bytes).
    Removing stm32f10x_sdio.o(i.SDIO_SetSDIOOperation), (12 bytes).
    Removing stm32f10x_sdio.o(i.SDIO_SetSDIOReadWaitMode), (12 bytes).
    Removing stm32f10x_sdio.o(i.SDIO_StartSDIOReadWait), (12 bytes).
    Removing stm32f10x_sdio.o(i.SDIO_StopSDIOReadWait), (12 bytes).
    Removing stm32f10x_sdio.o(i.SDIO_StructInit), (16 bytes).
    Removing malloc.o(i.mymemcpy), (16 bytes).
    Removing malloc.o(i.myrealloc), (60 bytes).
    Removing ff.o(i.dir_read), (256 bytes).
    Removing ff.o(i.dir_remove), (98 bytes).
    Removing ff.o(i.f_chmod), (106 bytes).
    Removing ff.o(i.f_closedir), (18 bytes).
    Removing ff.o(i.f_getfree), (192 bytes).
    Removing ff.o(i.f_getlabel), (142 bytes).
    Removing ff.o(i.f_gets), (68 bytes).
    Removing ff.o(i.f_lseek), (512 bytes).
    Removing ff.o(i.f_mkfs), (1334 bytes).
    Removing ff.o(i.f_opendir), (128 bytes).
    Removing ff.o(i.f_printf), (484 bytes).
    Removing ff.o(i.f_putc), (60 bytes).
    Removing ff.o(i.f_puts), (70 bytes).
    Removing ff.o(i.f_read), (328 bytes).
    Removing ff.o(i.f_readdir), (116 bytes).
    Removing ff.o(i.f_rename), (268 bytes).
    Removing ff.o(i.f_setlabel), (376 bytes).
    Removing ff.o(i.f_stat), (86 bytes).
    Removing ff.o(i.f_truncate), (176 bytes).
    Removing ff.o(i.f_unlink), (176 bytes).
    Removing ff.o(i.f_utime), (110 bytes).
    Removing ff.o(i.get_fileinfo), (194 bytes).
    Removing ff.o(i.putc_bfd), (58 bytes).
    Removing exfuns.o(i.char_upper), (14 bytes).
    Removing exfuns.o(i.exf_getfree), (46 bytes).
    Removing exfuns.o(i.f_typetell), (144 bytes).
    Removing exfuns.o(.bss), (32 bytes).
    Removing exfuns.o(.bss), (36 bytes).
    Removing exfuns.o(.constdata), (312 bytes).
    Removing exfuns.o(.conststring), (100 bytes).
    Removing exfuns.o(.data), (4 bytes).
    Removing exfuns.o(.data), (4 bytes).
    Removing fattester.o(i.mf_close), (20 bytes).
    Removing fattester.o(i.mf_closedir), (12 bytes).
    Removing fattester.o(i.mf_fmkfs), (4 bytes).
    Removing fattester.o(i.mf_getlabel), (128 bytes).
    Removing fattester.o(i.mf_gets), (72 bytes).
    Removing fattester.o(i.mf_lseek), (16 bytes).
    Removing fattester.o(i.mf_mkdir), (4 bytes).
    Removing fattester.o(i.mf_mount), (20 bytes).
    Removing fattester.o(i.mf_open), (16 bytes).
    Removing fattester.o(i.mf_opendir), (12 bytes).
    Removing fattester.o(i.mf_putc), (20 bytes).
    Removing fattester.o(i.mf_puts), (20 bytes).
    Removing fattester.o(i.mf_read), (332 bytes).
    Removing fattester.o(i.mf_readdir), (372 bytes).
    Removing fattester.o(i.mf_rename), (4 bytes).
    Removing fattester.o(i.mf_scan_files), (124 bytes).
    Removing fattester.o(i.mf_setlabel), (84 bytes).
    Removing fattester.o(i.mf_showfree), (144 bytes).
    Removing fattester.o(i.mf_size), (12 bytes).
    Removing fattester.o(i.mf_tell), (12 bytes).
    Removing fattester.o(i.mf_unlink), (4 bytes).
    Removing fattester.o(i.mf_write), (180 bytes).
    Removing fontupd.o(i.fupd_prog), (124 bytes).
    Removing fontupd.o(i.updata_fontx), (240 bytes).
    Removing fontupd.o(i.update_font), (784 bytes).
    Removing fontupd.o(.constdata), (16 bytes).
    Removing fontupd.o(.conststring), (96 bytes).
    Removing text.o(i.Show_Str_Mid), (88 bytes).
    Removing bmp.o(i.bmp_encode), (424 bytes).
    Removing bmp.o(i.minibmp_decode), (744 bytes).
    Removing bmp.o(i.stdbmp_decode), (516 bytes).
    Removing gif.o(i.gif_check_head), (78 bytes).
    Removing gif.o(i.gif_clear2bkcolor), (332 bytes).
    Removing gif.o(i.gif_decode), (264 bytes).
    Removing gif.o(i.gif_dispimage), (420 bytes).
    Removing gif.o(i.gif_drawimage), (284 bytes).
    Removing gif.o(i.gif_getdatablock), (58 bytes).
    Removing gif.o(i.gif_getinfo), (54 bytes).
    Removing gif.o(i.gif_getnextbyte), (572 bytes).
    Removing gif.o(i.gif_getnextcode), (292 bytes).
    Removing gif.o(i.gif_getrgb565), (24 bytes).
    Removing gif.o(i.gif_initlzw), (138 bytes).
    Removing gif.o(i.gif_quit), (12 bytes).
    Removing gif.o(i.gif_readcolortbl), (58 bytes).
    Removing gif.o(i.gif_readextension), (130 bytes).
    Removing gif.o(i.gif_recovergctbl), (22 bytes).
    Removing gif.o(i.gif_savegctbl), (22 bytes).
    Removing gif.o(.constdata), (40 bytes).
    Removing gif.o(.data), (1 bytes).
    Removing piclib.o(i.ai_draw_init), (208 bytes).
    Removing piclib.o(i.ai_load_picfile), (136 bytes).
    Removing piclib.o(i.is_element_ok), (36 bytes).
    Removing piclib.o(i.pic_memalloc), (8 bytes).
    Removing piclib.o(i.pic_memfree), (8 bytes).
    Removing piclib.o(i.piclib_alpha_blend), (36 bytes).
    Removing piclib.o(i.piclib_draw_hline), (44 bytes).
    Removing piclib.o(i.piclib_fill_color), (24 bytes).
    Removing piclib.o(i.piclib_init), (84 bytes).
    Removing piclib.o(.bss), (60 bytes).
    Removing tjpgd.o(i.alloc_pool), (28 bytes).
    Removing tjpgd.o(i.bitext), (122 bytes).
    Removing tjpgd.o(i.block_idct), (484 bytes).
    Removing tjpgd.o(i.create_huffman_tbl), (202 bytes).
    Removing tjpgd.o(i.huffext), (162 bytes).
    Removing tjpgd.o(i.jd_decomp), (230 bytes).
    Removing tjpgd.o(i.jd_prepare), (712 bytes).
    Removing tjpgd.o(i.jpeg_freeall), (32 bytes).
    Removing tjpgd.o(i.jpeg_in_func), (36 bytes).
    Removing tjpgd.o(i.jpeg_mallocall), (52 bytes).
    Removing tjpgd.o(i.jpeg_out_func_fill), (60 bytes).
    Removing tjpgd.o(i.jpeg_out_func_point), (168 bytes).
    Removing tjpgd.o(i.jpg_decode), (196 bytes).
    Removing tjpgd.o(i.mcu_load), (344 bytes).
    Removing tjpgd.o(i.mcu_output), (776 bytes).
    Removing tjpgd.o(.constdata), (1216 bytes).
    Removing tjpgd.o(.data), (12 bytes).
    Removing stm32f10x_adc.o(i.ADC_AnalogWatchdogCmd), (16 bytes).
    Removing stm32f10x_adc.o(i.ADC_AnalogWatchdogSingleChannelConfig), (12 bytes).
    Removing stm32f10x_adc.o(i.ADC_AnalogWatchdogThresholdsConfig), (6 bytes).
    Removing stm32f10x_adc.o(i.ADC_AutoInjectedConvCmd), (20 bytes).
    Removing stm32f10x_adc.o(i.ADC_ClearFlag), (6 bytes).
    Removing stm32f10x_adc.o(i.ADC_ClearITPendingBit), (8 bytes).
    Removing stm32f10x_adc.o(i.ADC_DeInit), (68 bytes).
    Removing stm32f10x_adc.o(i.ADC_DiscModeChannelCountConfig), (16 bytes).
    Removing stm32f10x_adc.o(i.ADC_DiscModeCmd), (20 bytes).
    Removing stm32f10x_adc.o(i.ADC_ExternalTrigConvCmd), (20 bytes).
    Removing stm32f10x_adc.o(i.ADC_ExternalTrigInjectedConvCmd), (20 bytes).
    Removing stm32f10x_adc.o(i.ADC_ExternalTrigInjectedConvConfig), (12 bytes).
    Removing stm32f10x_adc.o(i.ADC_GetConversionValue), (6 bytes).
    Removing stm32f10x_adc.o(i.ADC_GetDualModeConversionValue), (12 bytes).
    Removing stm32f10x_adc.o(i.ADC_GetFlagStatus), (14 bytes).
    Removing stm32f10x_adc.o(i.ADC_GetITStatus), (28 bytes).
    Removing stm32f10x_adc.o(i.ADC_GetInjectedConversionValue), (14 bytes).
    Removing stm32f10x_adc.o(i.ADC_GetSoftwareStartConvStatus), (14 bytes).
    Removing stm32f10x_adc.o(i.ADC_GetSoftwareStartInjectedConvCmdStatus), (14 bytes).
    Removing stm32f10x_adc.o(i.ADC_ITConfig), (18 bytes).
    Removing stm32f10x_adc.o(i.ADC_InjectedChannelConfig), (74 bytes).
    Removing stm32f10x_adc.o(i.ADC_InjectedDiscModeCmd), (20 bytes).
    Removing stm32f10x_adc.o(i.ADC_InjectedSequencerLengthConfig), (16 bytes).
    Removing stm32f10x_adc.o(i.ADC_SetInjectedOffset), (10 bytes).
    Removing stm32f10x_adc.o(i.ADC_SoftwareStartInjectedConvCmd), (20 bytes).
    Removing stm32f10x_adc.o(i.ADC_StructInit), (18 bytes).
    Removing stm32f10x_adc.o(i.ADC_TempSensorVrefintCmd), (28 bytes).
    Removing data_processing.o(i.GPIO_Configuration), (28 bytes).
    Removing data_processing.o(.data), (1 bytes).
    Removing data_processing.o(.data), (4 bytes).
    Removing data_processing.o(.data), (4 bytes).
    Removing data_processing.o(.data), (1 bytes).
    Removing data_processing.o(.data), (1 bytes).
    Removing data_processing.o(.data), (2 bytes).
    Removing data_processing.o(.data), (2 bytes).
    Removing data_processing.o(.data), (4 bytes).
    Removing data_processing.o(.data), (4 bytes).
    Removing data_processing.o(.data), (2 bytes).
    Removing data_processing.o(.data), (2 bytes).
    Removing data_processing.o(.data), (2 bytes).
    Removing data_processing.o(.data), (2 bytes).
    Removing data_processing.o(.data), (4 bytes).

416 unused section(s) (total 49904 bytes) removed from the image.

==============================================================================

Image Symbol Table

    Local Symbols

    Symbol Name                              Value     Ov Type        Size  Object(Section)

    ../clib/angel/boardlib.s                 0x00000000   Number         0  boardshut.o ABSOLUTE
    ../clib/angel/boardlib.s                 0x00000000   Number         0  boardinit3.o ABSOLUTE
    ../clib/angel/boardlib.s                 0x00000000   Number         0  boardinit1.o ABSOLUTE
    ../clib/angel/boardlib.s                 0x00000000   Number         0  boardinit2.o ABSOLUTE
    ../clib/angel/dczerorl2.s                0x00000000   Number         0  __dczerorl2.o ABSOLUTE
    ../clib/angel/handlers.s                 0x00000000   Number         0  __scatter_zi.o ABSOLUTE
    ../clib/angel/kernel.s                   0x00000000   Number         0  rtexit.o ABSOLUTE
    ../clib/angel/kernel.s                   0x00000000   Number         0  __rtentry.o ABSOLUTE
    ../clib/angel/kernel.s                   0x00000000   Number         0  rtexit2.o ABSOLUTE
    ../clib/angel/kernel.s                   0x00000000   Number         0  __rtentry2.o ABSOLUTE
    ../clib/angel/kernel.s                   0x00000000   Number         0  __rtentry4.o ABSOLUTE
    ../clib/angel/rt.s                       0x00000000   Number         0  rt_raise.o ABSOLUTE
    ../clib/angel/rt.s                       0x00000000   Number         0  rt_div0.o ABSOLUTE
    ../clib/angel/rt.s                       0x00000000   Number         0  rt_locale.o ABSOLUTE
    ../clib/angel/rt.s                       0x00000000   Number         0  rt_locale_intlibspace.o ABSOLUTE
    ../clib/angel/rt.s                       0x00000000   Number         0  aeabi_ldiv0.o ABSOLUTE
    ../clib/angel/rt.s                       0x00000000   Number         0  aeabi_ldiv0_sigfpe.o ABSOLUTE
    ../clib/angel/scatter.s                  0x00000000   Number         0  __scatter.o ABSOLUTE
    ../clib/angel/startup.s                  0x00000000   Number         0  __main.o ABSOLUTE
    ../clib/angel/sys.s                      0x00000000   Number         0  indicate_semi.o ABSOLUTE
    ../clib/angel/sys.s                      0x00000000   Number         0  use_no_semi.o ABSOLUTE
    ../clib/angel/sys.s                      0x00000000   Number         0  use_no_semi_2.o ABSOLUTE
    ../clib/angel/sys.s                      0x00000000   Number         0  sys_stackheap_outer.o ABSOLUTE
    ../clib/angel/sys.s                      0x00000000   Number         0  libspace.o ABSOLUTE
    ../clib/angel/sysapp.c                   0x00000000   Number         0  sys_wrch.o ABSOLUTE
    ../clib/angel/sysapp.c                   0x00000000   Number         0  sys_command.o ABSOLUTE
    ../clib/armsys.c                         0x00000000   Number         0  argv_veneer.o ABSOLUTE
    ../clib/armsys.c                         0x00000000   Number         0  argv_veneer.o ABSOLUTE
    ../clib/armsys.c                         0x00000000   Number         0  _get_argv_nomalloc.o ABSOLUTE
    ../clib/armsys.c                         0x00000000   Number         0  no_argv.o ABSOLUTE
    ../clib/bigflt.c                         0x00000000   Number         0  bigflt0.o ABSOLUTE
    ../clib/btod.s                           0x00000000   Number         0  btod.o ABSOLUTE
    ../clib/heapalloc.c                      0x00000000   Number         0  hrguard.o ABSOLUTE
    ../clib/heapaux.c                        0x00000000   Number         0  heapauxi.o ABSOLUTE
    ../clib/libinit.s                        0x00000000   Number         0  libshutdown.o ABSOLUTE
    ../clib/libinit.s                        0x00000000   Number         0  libshutdown2.o ABSOLUTE
    ../clib/libinit.s                        0x00000000   Number         0  libinit2.o ABSOLUTE
    ../clib/libinit.s                        0x00000000   Number         0  libinit.o ABSOLUTE
    ../clib/locale.s                         0x00000000   Number         0  lc_numeric_c.o ABSOLUTE
    ../clib/longlong.s                       0x00000000   Number         0  lludivv7m.o ABSOLUTE
    ../clib/longlong.s                       0x00000000   Number         0  llsdiv.o ABSOLUTE
    ../clib/longlong.s                       0x00000000   Number         0  lludiv10.o ABSOLUTE
    ../clib/memcpset.s                       0x00000000   Number         0  strcmpv7m.o ABSOLUTE
    ../clib/memcpset.s                       0x00000000   Number         0  rt_memcpy_v6.o ABSOLUTE
    ../clib/memcpset.s                       0x00000000   Number         0  rt_memcpy_w.o ABSOLUTE
    ../clib/misc.s                           0x00000000   Number         0  printf_stubs.o ABSOLUTE
    ../clib/printf.c                         0x00000000   Number         0  __printf.o ABSOLUTE
    ../clib/printf.c                         0x00000000   Number         0  _printf_pad.o ABSOLUTE
    ../clib/printf.c                         0x00000000   Number         0  _printf_str.o ABSOLUTE
    ../clib/printf.c                         0x00000000   Number         0  _printf_dec.o ABSOLUTE
    ../clib/printf.c                         0x00000000   Number         0  _printf_hex_int.o ABSOLUTE
    ../clib/printf.c                         0x00000000   Number         0  _printf_hex_int_ll.o ABSOLUTE
    ../clib/printf.c                         0x00000000   Number         0  _printf_hex_ptr.o ABSOLUTE
    ../clib/printf.c                         0x00000000   Number         0  __printf_nopercent.o ABSOLUTE
    ../clib/printf.c                         0x00000000   Number         0  _printf_fp_infnan.o ABSOLUTE
    ../clib/printf.c                         0x00000000   Number         0  __2printf.o ABSOLUTE
    ../clib/printf.c                         0x00000000   Number         0  _printf_intcommon.o ABSOLUTE
    ../clib/printf.c                         0x00000000   Number         0  __2sprintf.o ABSOLUTE
    ../clib/printf.c                         0x00000000   Number         0  _printf_hex_int_ptr.o ABSOLUTE
    ../clib/printf.c                         0x00000000   Number         0  noretval__2printf.o ABSOLUTE
    ../clib/printf.c                         0x00000000   Number         0  _printf_hex_ll_ptr.o ABSOLUTE
    ../clib/printf.c                         0x00000000   Number         0  _printf_hex_int_ll_ptr.o ABSOLUTE
    ../clib/printf.c                         0x00000000   Number         0  __printf_flags.o ABSOLUTE
    ../clib/printf.c                         0x00000000   Number         0  __printf_ss.o ABSOLUTE
    ../clib/printf.c                         0x00000000   Number         0  __printf_flags_ss.o ABSOLUTE
    ../clib/printf.c                         0x00000000   Number         0  __printf_wp.o ABSOLUTE
    ../clib/printf.c                         0x00000000   Number         0  __printf_flags_wp.o ABSOLUTE
    ../clib/printf.c                         0x00000000   Number         0  __printf_ss_wp.o ABSOLUTE
    ../clib/printf.c                         0x00000000   Number         0  _printf_hex_ll.o ABSOLUTE
    ../clib/printf.c                         0x00000000   Number         0  __printf_flags_ss_wp.o ABSOLUTE
    ../clib/printf.c                         0x00000000   Number         0  noretval__2sprintf.o ABSOLUTE
    ../clib/printf.c                         0x00000000   Number         0  _printf_char_file.o ABSOLUTE
    ../clib/printf.c                         0x00000000   Number         0  _printf_char.o ABSOLUTE
    ../clib/printf.c                         0x00000000   Number         0  _sputc.o ABSOLUTE
    ../clib/printf.c                         0x00000000   Number         0  _printf_char_common.o ABSOLUTE
    ../clib/printf.c                         0x00000000   Number         0  _printf_fp_dec.o ABSOLUTE
    ../clib/printf_percent.s                 0x00000000   Number         0  _printf_u.o ABSOLUTE
    ../clib/printf_percent.s                 0x00000000   Number         0  _printf_percent_end.o ABSOLUTE
    ../clib/printf_percent.s                 0x00000000   Number         0  _printf_x.o ABSOLUTE
    ../clib/printf_percent.s                 0x00000000   Number         0  _printf_s.o ABSOLUTE
    ../clib/printf_percent.s                 0x00000000   Number         0  _printf_percent.o ABSOLUTE
    ../clib/printf_percent.s                 0x00000000   Number         0  _printf_d.o ABSOLUTE
    ../clib/printf_percent.s                 0x00000000   Number         0  _printf_f.o ABSOLUTE
    ../clib/printf_percent.s                 0x00000000   Number         0  _printf_c.o ABSOLUTE
    ../clib/signal.c                         0x00000000   Number         0  defsig_segv_inner.o ABSOLUTE
    ../clib/signal.c                         0x00000000   Number         0  defsig_cppl_inner.o ABSOLUTE
    ../clib/signal.c                         0x00000000   Number         0  defsig_rtmem_formal.o ABSOLUTE
    ../clib/signal.c                         0x00000000   Number         0  defsig_rtmem_outer.o ABSOLUTE
    ../clib/signal.c                         0x00000000   Number         0  defsig_general.o ABSOLUTE
    ../clib/signal.c                         0x00000000   Number         0  defsig_pvfn_inner.o ABSOLUTE
    ../clib/signal.c                         0x00000000   Number         0  defsig_stak_inner.o ABSOLUTE
    ../clib/signal.c                         0x00000000   Number         0  __raise.o ABSOLUTE
    ../clib/signal.c                         0x00000000   Number         0  defsig_fpe_inner.o ABSOLUTE
    ../clib/signal.c                         0x00000000   Number         0  defsig_exit.o ABSOLUTE
    ../clib/signal.c                         0x00000000   Number         0  defsig_rtred_inner.o ABSOLUTE
    ../clib/signal.c                         0x00000000   Number         0  defsig_abrt_inner.o ABSOLUTE
    ../clib/signal.c                         0x00000000   Number         0  defsig_fpe_formal.o ABSOLUTE
    ../clib/signal.c                         0x00000000   Number         0  defsig_fpe_outer.o ABSOLUTE
    ../clib/signal.c                         0x00000000   Number         0  defsig_rtmem_inner.o ABSOLUTE
    ../clib/signal.c                         0x00000000   Number         0  defsig_other.o ABSOLUTE
    ../clib/signal.s                         0x00000000   Number         0  defsig.o ABSOLUTE
    ../clib/stdio.c                          0x00000000   Number         0  ferror_locked.o ABSOLUTE
    ../clib/stdio.c                          0x00000000   Number         0  ferror.o ABSOLUTE
    ../clib/stdlib.c                         0x00000000   Number         0  exit.o ABSOLUTE
    ../clib/string.c                         0x00000000   Number         0  strcat.o ABSOLUTE
    ../clib/string.c                         0x00000000   Number         0  strlen.o ABSOLUTE
    ../clib/string.c                         0x00000000   Number         0  strcpy.o ABSOLUTE
    ../fplib/d2f.s                           0x00000000   Number         0  d2f.o ABSOLUTE
    ../fplib/daddsub.s                       0x00000000   Number         0  daddsub_clz.o ABSOLUTE
    ../fplib/dcheck1.s                       0x00000000   Number         0  dcheck1.o ABSOLUTE
    ../fplib/ddiv.s                          0x00000000   Number         0  ddiv.o ABSOLUTE
    ../fplib/dfixu.s                         0x00000000   Number         0  dfixu.o ABSOLUTE
    ../fplib/dflt.s                          0x00000000   Number         0  dflt_clz.o ABSOLUTE
    ../fplib/dmul.s                          0x00000000   Number         0  dmul.o ABSOLUTE
    ../fplib/dnaninf.s                       0x00000000   Number         0  dnaninf.o ABSOLUTE
    ../fplib/dretinf.s                       0x00000000   Number         0  dretinf.o ABSOLUTE
    ../fplib/f2d.s                           0x00000000   Number         0  f2d.o ABSOLUTE
    ../fplib/faddsub.s                       0x00000000   Number         0  faddsub_clz.o ABSOLUTE
    ../fplib/fcheck1.s                       0x00000000   Number         0  fcheck1.o ABSOLUTE
    ../fplib/fcmpi.s                         0x00000000   Number         0  fcmpi.o ABSOLUTE
    ../fplib/fdiv.s                          0x00000000   Number         0  fdiv.o ABSOLUTE
    ../fplib/feqf.s                          0x00000000   Number         0  feqf.o ABSOLUTE
    ../fplib/ffix.s                          0x00000000   Number         0  ffix.o ABSOLUTE
    ../fplib/ffixu.s                         0x00000000   Number         0  ffixu.o ABSOLUTE
    ../fplib/fflt.s                          0x00000000   Number         0  fflt_clz.o ABSOLUTE
    ../fplib/fleqf.s                         0x00000000   Number         0  fleqf.o ABSOLUTE
    ../fplib/fmul.s                          0x00000000   Number         0  fmul.o ABSOLUTE
    ../fplib/fnaninf.s                       0x00000000   Number         0  fnaninf.o ABSOLUTE
    ../fplib/fpinit.s                        0x00000000   Number         0  fpinit.o ABSOLUTE
    ../fplib/fretinf.s                       0x00000000   Number         0  fretinf.o ABSOLUTE
    ../fplib/istatus.s                       0x00000000   Number         0  istatus.o ABSOLUTE
    ../fplib/printf1.s                       0x00000000   Number         0  printf1.o ABSOLUTE
    ../fplib/retnan.s                        0x00000000   Number         0  retnan.o ABSOLUTE
    ../fplib/scalbn.s                        0x00000000   Number         0  scalbn.o ABSOLUTE
    ../fplib/scalbnf.s                       0x00000000   Number         0  scalbnf.o ABSOLUTE
    ../fplib/trapv.s                         0x00000000   Number         0  trapv.o ABSOLUTE
    ../fplib/usenofp.s                       0x00000000   Number         0  usenofp.o ABSOLUTE
    ../mathlib/fpclassify.c                  0x00000000   Number         0  fpclassify.o ABSOLUTE
    ..\ADC\bsp_adc.c                         0x00000000   Number         0  bsp_adc.o ABSOLUTE
    ..\ADC\data_processing.c                 0x00000000   Number         0  data_processing.o ABSOLUTE
    ..\CORE\core_cm3.c                       0x00000000   Number         0  core_cm3.o ABSOLUTE
    ..\CORE\startup_stm32f10x_hd.s           0x00000000   Number         0  startup_stm32f10x_hd.o ABSOLUTE
    ..\FATFS\exfuns\exfuns.c                 0x00000000   Number         0  exfuns.o ABSOLUTE
    ..\FATFS\exfuns\fattester.c              0x00000000   Number         0  fattester.o ABSOLUTE
    ..\FATFS\exfuns\mycc936.c                0x00000000   Number         0  mycc936.o ABSOLUTE
    ..\FATFS\src\diskio.c                    0x00000000   Number         0  diskio.o ABSOLUTE
    ..\FATFS\src\ff.c                        0x00000000   Number         0  ff.o ABSOLUTE
    ..\HARDWARE\BEEP\beep.c                  0x00000000   Number         0  beep.o ABSOLUTE
    ..\HARDWARE\DMA\dma.c                    0x00000000   Number         0  dma.o ABSOLUTE
    ..\HARDWARE\DS18B20\ds18b20.c            0x00000000   Number         0  ds18b20.o ABSOLUTE
    ..\HARDWARE\KEY\key.c                    0x00000000   Number         0  key.o ABSOLUTE
    ..\HARDWARE\LCD\lcd.c                    0x00000000   Number         0  lcd.o ABSOLUTE
    ..\HARDWARE\LED\led.c                    0x00000000   Number         0  led.o ABSOLUTE
    ..\HARDWARE\OLED\OLED.c                  0x00000000   Number         0  oled.o ABSOLUTE
    ..\HARDWARE\OV2640\ov2640.c              0x00000000   Number         0  ov2640.o ABSOLUTE
    ..\HARDWARE\OV2640\sccb.c                0x00000000   Number         0  sccb.o ABSOLUTE
    ..\HARDWARE\SDIO\sdio_sdcard.c           0x00000000   Number         0  sdio_sdcard.o ABSOLUTE
    ..\HARDWARE\SPI\spi.c                    0x00000000   Number         0  spi.o ABSOLUTE
    ..\HARDWARE\TIMER\timer.c                0x00000000   Number         0  timer.o ABSOLUTE
    ..\HARDWARE\TPAD\tpad.c                  0x00000000   Number         0  tpad.o ABSOLUTE
    ..\HARDWARE\W25QXX\w25qxx.c              0x00000000   Number         0  w25qxx.o ABSOLUTE
    ..\MALLOC\malloc.c                       0x00000000   Number         0  malloc.o ABSOLUTE
    ..\PICTURE\bmp.c                         0x00000000   Number         0  bmp.o ABSOLUTE
    ..\PICTURE\gif.c                         0x00000000   Number         0  gif.o ABSOLUTE
    ..\PICTURE\piclib.c                      0x00000000   Number         0  piclib.o ABSOLUTE
    ..\PICTURE\tjpgd.c                       0x00000000   Number         0  tjpgd.o ABSOLUTE
    ..\STM32F10x_FWLib\src\misc.c            0x00000000   Number         0  misc.o ABSOLUTE
    ..\STM32F10x_FWLib\src\stm32f10x_adc.c   0x00000000   Number         0  stm32f10x_adc.o ABSOLUTE
    ..\STM32F10x_FWLib\src\stm32f10x_dma.c   0x00000000   Number         0  stm32f10x_dma.o ABSOLUTE
    ..\STM32F10x_FWLib\src\stm32f10x_exti.c  0x00000000   Number         0  stm32f10x_exti.o ABSOLUTE
    ..\STM32F10x_FWLib\src\stm32f10x_fsmc.c  0x00000000   Number         0  stm32f10x_fsmc.o ABSOLUTE
    ..\STM32F10x_FWLib\src\stm32f10x_gpio.c  0x00000000   Number         0  stm32f10x_gpio.o ABSOLUTE
    ..\STM32F10x_FWLib\src\stm32f10x_rcc.c   0x00000000   Number         0  stm32f10x_rcc.o ABSOLUTE
    ..\STM32F10x_FWLib\src\stm32f10x_sdio.c  0x00000000   Number         0  stm32f10x_sdio.o ABSOLUTE
    ..\STM32F10x_FWLib\src\stm32f10x_spi.c   0x00000000   Number         0  stm32f10x_spi.o ABSOLUTE
    ..\STM32F10x_FWLib\src\stm32f10x_tim.c   0x00000000   Number         0  stm32f10x_tim.o ABSOLUTE
    ..\STM32F10x_FWLib\src\stm32f10x_usart.c 0x00000000   Number         0  stm32f10x_usart.o ABSOLUTE
    ..\SYSTEM\delay\Delay1.c                 0x00000000   Number         0  delay1.o ABSOLUTE
    ..\SYSTEM\delay\delay.c                  0x00000000   Number         0  delay.o ABSOLUTE
    ..\SYSTEM\sys\sys.c                      0x00000000   Number         0  sys.o ABSOLUTE
    ..\SYSTEM\usart\bsp_usart1.c             0x00000000   Number         0  bsp_usart1.o ABSOLUTE
    ..\SYSTEM\usart\usart.c                  0x00000000   Number         0  usart.o ABSOLUTE
    ..\TEXT\fontupd.c                        0x00000000   Number         0  fontupd.o ABSOLUTE
    ..\TEXT\text.c                           0x00000000   Number         0  text.o ABSOLUTE
    ..\USMART\usmart.c                       0x00000000   Number         0  usmart.o ABSOLUTE
    ..\USMART\usmart_config.c                0x00000000   Number         0  usmart_config.o ABSOLUTE
    ..\USMART\usmart_str.c                   0x00000000   Number         0  usmart_str.o ABSOLUTE
    ..\\CORE\\core_cm3.c                     0x00000000   Number         0  core_cm3.o ABSOLUTE
    ..\\SYSTEM\\sys\\sys.c                   0x00000000   Number         0  sys.o ABSOLUTE
    dc.s                                     0x00000000   Number         0  dc.o ABSOLUTE
    main.c                                   0x00000000   Number         0  main.o ABSOLUTE
    stm32f10x_it.c                           0x00000000   Number         0  stm32f10x_it.o ABSOLUTE
    system_stm32f10x.c                       0x00000000   Number         0  system_stm32f10x.o ABSOLUTE
    RESET                                    0x08000000   Section      304  startup_stm32f10x_hd.o(RESET)
    !!!main                                  0x08000130   Section        8  __main.o(!!!main)
    !!!scatter                               0x08000138   Section       52  __scatter.o(!!!scatter)
    !!dczerorl2                              0x0800016c   Section       90  __dczerorl2.o(!!dczerorl2)
    !!handler_zi                             0x080001c8   Section       28  __scatter_zi.o(!!handler_zi)
    .ARM.Collect$$_printf_percent$$00000000  0x080001e4   Section        0  _printf_percent.o(.ARM.Collect$$_printf_percent$$00000000)
    .ARM.Collect$$_printf_percent$$00000003  0x080001e4   Section        6  _printf_f.o(.ARM.Collect$$_printf_percent$$00000003)
    .ARM.Collect$$_printf_percent$$00000009  0x080001ea   Section        6  _printf_d.o(.ARM.Collect$$_printf_percent$$00000009)
    .ARM.Collect$$_printf_percent$$0000000A  0x080001f0   Section        6  _printf_u.o(.ARM.Collect$$_printf_percent$$0000000A)
    .ARM.Collect$$_printf_percent$$0000000C  0x080001f6   Section        6  _printf_x.o(.ARM.Collect$$_printf_percent$$0000000C)
    .ARM.Collect$$_printf_percent$$00000013  0x080001fc   Section        6  _printf_c.o(.ARM.Collect$$_printf_percent$$00000013)
    .ARM.Collect$$_printf_percent$$00000014  0x08000202   Section        6  _printf_s.o(.ARM.Collect$$_printf_percent$$00000014)
    .ARM.Collect$$_printf_percent$$00000017  0x08000208   Section        4  _printf_percent_end.o(.ARM.Collect$$_printf_percent$$00000017)
    .ARM.Collect$$libinit$$00000000          0x0800020c   Section        2  libinit.o(.ARM.Collect$$libinit$$00000000)
    .ARM.Collect$$libinit$$00000002          0x0800020e   Section        0  libinit2.o(.ARM.Collect$$libinit$$00000002)
    .ARM.Collect$$libinit$$00000004          0x0800020e   Section        0  libinit2.o(.ARM.Collect$$libinit$$00000004)
    .ARM.Collect$$libinit$$0000000A          0x0800020e   Section        0  libinit2.o(.ARM.Collect$$libinit$$0000000A)
    .ARM.Collect$$libinit$$0000000C          0x0800020e   Section        0  libinit2.o(.ARM.Collect$$libinit$$0000000C)
    .ARM.Collect$$libinit$$0000000E          0x0800020e   Section        0  libinit2.o(.ARM.Collect$$libinit$$0000000E)
    .ARM.Collect$$libinit$$0000000F          0x0800020e   Section        6  libinit2.o(.ARM.Collect$$libinit$$0000000F)
    .ARM.Collect$$libinit$$00000011          0x08000214   Section        0  libinit2.o(.ARM.Collect$$libinit$$00000011)
    .ARM.Collect$$libinit$$00000013          0x08000214   Section        0  libinit2.o(.ARM.Collect$$libinit$$00000013)
    .ARM.Collect$$libinit$$00000015          0x08000214   Section        0  libinit2.o(.ARM.Collect$$libinit$$00000015)
    .ARM.Collect$$libinit$$00000016          0x08000214   Section       10  libinit2.o(.ARM.Collect$$libinit$$00000016)
    .ARM.Collect$$libinit$$00000017          0x0800021e   Section        0  libinit2.o(.ARM.Collect$$libinit$$00000017)
    .ARM.Collect$$libinit$$00000019          0x0800021e   Section        0  libinit2.o(.ARM.Collect$$libinit$$00000019)
    .ARM.Collect$$libinit$$0000001B          0x0800021e   Section        0  libinit2.o(.ARM.Collect$$libinit$$0000001B)
    .ARM.Collect$$libinit$$0000001D          0x0800021e   Section        0  libinit2.o(.ARM.Collect$$libinit$$0000001D)
    .ARM.Collect$$libinit$$0000001F          0x0800021e   Section        0  libinit2.o(.ARM.Collect$$libinit$$0000001F)
    .ARM.Collect$$libinit$$00000021          0x0800021e   Section        0  libinit2.o(.ARM.Collect$$libinit$$00000021)
    .ARM.Collect$$libinit$$00000023          0x0800021e   Section        0  libinit2.o(.ARM.Collect$$libinit$$00000023)
    .ARM.Collect$$libinit$$00000025          0x0800021e   Section        0  libinit2.o(.ARM.Collect$$libinit$$00000025)
    .ARM.Collect$$libinit$$0000002C          0x0800021e   Section        0  libinit2.o(.ARM.Collect$$libinit$$0000002C)
    .ARM.Collect$$libinit$$0000002E          0x0800021e   Section        0  libinit2.o(.ARM.Collect$$libinit$$0000002E)
    .ARM.Collect$$libinit$$00000030          0x0800021e   Section        0  libinit2.o(.ARM.Collect$$libinit$$00000030)
    .ARM.Collect$$libinit$$00000032          0x0800021e   Section        0  libinit2.o(.ARM.Collect$$libinit$$00000032)
    .ARM.Collect$$libinit$$00000033          0x0800021e   Section        2  libinit2.o(.ARM.Collect$$libinit$$00000033)
    .ARM.Collect$$libshutdown$$00000000      0x08000220   Section        2  libshutdown.o(.ARM.Collect$$libshutdown$$00000000)
    .ARM.Collect$$libshutdown$$00000002      0x08000222   Section        0  libshutdown2.o(.ARM.Collect$$libshutdown$$00000002)
    .ARM.Collect$$libshutdown$$00000004      0x08000222   Section        0  libshutdown2.o(.ARM.Collect$$libshutdown$$00000004)
    .ARM.Collect$$libshutdown$$00000007      0x08000222   Section        0  libshutdown2.o(.ARM.Collect$$libshutdown$$00000007)
    .ARM.Collect$$libshutdown$$0000000A      0x08000222   Section        0  libshutdown2.o(.ARM.Collect$$libshutdown$$0000000A)
    .ARM.Collect$$libshutdown$$0000000C      0x08000222   Section        0  libshutdown2.o(.ARM.Collect$$libshutdown$$0000000C)
    .ARM.Collect$$libshutdown$$0000000F      0x08000222   Section        0  libshutdown2.o(.ARM.Collect$$libshutdown$$0000000F)
    .ARM.Collect$$libshutdown$$00000010      0x08000222   Section        2  libshutdown2.o(.ARM.Collect$$libshutdown$$00000010)
    .ARM.Collect$$rtentry$$00000000          0x08000224   Section        0  __rtentry.o(.ARM.Collect$$rtentry$$00000000)
    .ARM.Collect$$rtentry$$00000002          0x08000224   Section        0  __rtentry2.o(.ARM.Collect$$rtentry$$00000002)
    .ARM.Collect$$rtentry$$00000004          0x08000224   Section        6  __rtentry4.o(.ARM.Collect$$rtentry$$00000004)
    .ARM.Collect$$rtentry$$00000009          0x0800022a   Section        0  __rtentry2.o(.ARM.Collect$$rtentry$$00000009)
    .ARM.Collect$$rtentry$$0000000A          0x0800022a   Section        4  __rtentry2.o(.ARM.Collect$$rtentry$$0000000A)
    .ARM.Collect$$rtentry$$0000000C          0x0800022e   Section        0  __rtentry2.o(.ARM.Collect$$rtentry$$0000000C)
    .ARM.Collect$$rtentry$$0000000D          0x0800022e   Section        8  __rtentry2.o(.ARM.Collect$$rtentry$$0000000D)
    .ARM.Collect$$rtexit$$00000000           0x08000236   Section        2  rtexit.o(.ARM.Collect$$rtexit$$00000000)
    .ARM.Collect$$rtexit$$00000002           0x08000238   Section        0  rtexit2.o(.ARM.Collect$$rtexit$$00000002)
    .ARM.Collect$$rtexit$$00000003           0x08000238   Section        4  rtexit2.o(.ARM.Collect$$rtexit$$00000003)
    .ARM.Collect$$rtexit$$00000004           0x0800023c   Section        6  rtexit2.o(.ARM.Collect$$rtexit$$00000004)
    .text                                    0x08000244   Section       60  startup_stm32f10x_hd.o(.text)
    .text                                    0x08000280   Section        2  use_no_semi_2.o(.text)
    .text                                    0x08000282   Section       72  llsdiv.o(.text)
    .text                                    0x080002cc   Section        0  noretval__2printf.o(.text)
    .text                                    0x080002e4   Section        0  noretval__2sprintf.o(.text)
    .text                                    0x0800030c   Section        0  _printf_pad.o(.text)
    .text                                    0x0800035a   Section        0  _printf_str.o(.text)
    .text                                    0x080003ac   Section        0  _printf_dec.o(.text)
    .text                                    0x08000424   Section        0  _printf_hex_int.o(.text)
    .text                                    0x0800047c   Section        0  __printf_flags_ss_wp.o(.text)
    .text                                    0x08000604   Section      138  rt_memcpy_v6.o(.text)
    .text                                    0x08000690   Section      128  strcmpv7m.o(.text)
    .text                                    0x08000710   Section        0  heapauxi.o(.text)
    .text                                    0x08000716   Section        2  use_no_semi.o(.text)
    .text                                    0x08000718   Section      238  lludivv7m.o(.text)
    .text                                    0x08000806   Section        0  _printf_intcommon.o(.text)
    .text                                    0x080008b8   Section        0  _printf_fp_dec.o(.text)
    _fp_digits                               0x080008bb   Thumb Code   432  _printf_fp_dec.o(.text)
    .text                                    0x08000cd8   Section        0  _printf_char_common.o(.text)
    _printf_input_char                       0x08000cd9   Thumb Code    10  _printf_char_common.o(.text)
    .text                                    0x08000d08   Section        0  _sputc.o(.text)
    .text                                    0x08000d12   Section        0  _printf_char.o(.text)
    .text                                    0x08000d40   Section        0  _printf_char_file.o(.text)
    .text                                    0x08000d64   Section      100  rt_memcpy_w.o(.text)
    .text                                    0x08000dc8   Section        8  rt_locale_intlibspace.o(.text)
    .text                                    0x08000dd0   Section      138  lludiv10.o(.text)
    .text                                    0x08000e5c   Section        0  _printf_fp_infnan.o(.text)
    .text                                    0x08000edc   Section        0  bigflt0.o(.text)
    .text                                    0x08000fc0   Section        0  ferror.o(.text)
    .text                                    0x08000fc8   Section        8  libspace.o(.text)
    .text                                    0x08000fd0   Section       74  sys_stackheap_outer.o(.text)
    .text                                    0x0800101a   Section        0  exit.o(.text)
    CL$$btod_d2e                             0x0800102c   Section       62  btod.o(CL$$btod_d2e)
    CL$$btod_d2e_denorm_low                  0x0800106a   Section       70  btod.o(CL$$btod_d2e_denorm_low)
    CL$$btod_d2e_norm_op1                    0x080010b0   Section       96  btod.o(CL$$btod_d2e_norm_op1)
    CL$$btod_div_common                      0x08001110   Section      824  btod.o(CL$$btod_div_common)
    CL$$btod_e2e                             0x08001448   Section      220  btod.o(CL$$btod_e2e)
    CL$$btod_ediv                            0x08001524   Section       42  btod.o(CL$$btod_ediv)
    CL$$btod_emul                            0x0800154e   Section       42  btod.o(CL$$btod_emul)
    CL$$btod_mult_common                     0x08001578   Section      580  btod.o(CL$$btod_mult_common)
    i.ADC_Cmd                                0x080017bc   Section        0  stm32f10x_adc.o(i.ADC_Cmd)
    i.ADC_DMACmd                             0x080017d0   Section        0  stm32f10x_adc.o(i.ADC_DMACmd)
    i.ADC_GetCalibrationStatus               0x080017e4   Section        0  stm32f10x_adc.o(i.ADC_GetCalibrationStatus)
    i.ADC_GetResetCalibrationStatus          0x080017f2   Section        0  stm32f10x_adc.o(i.ADC_GetResetCalibrationStatus)
    i.ADC_Init                               0x08001800   Section        0  stm32f10x_adc.o(i.ADC_Init)
    i.ADC_RegularChannelConfig               0x08001848   Section        0  stm32f10x_adc.o(i.ADC_RegularChannelConfig)
    i.ADC_ResetCalibration                   0x080018bc   Section        0  stm32f10x_adc.o(i.ADC_ResetCalibration)
    i.ADC_SoftwareStartConvCmd               0x080018c6   Section        0  stm32f10x_adc.o(i.ADC_SoftwareStartConvCmd)
    i.ADC_StartCalibration                   0x080018da   Section        0  stm32f10x_adc.o(i.ADC_StartCalibration)
    i.ADCx_Init                              0x080018e4   Section        0  bsp_adc.o(i.ADCx_Init)
    i.BEEP_Init                              0x080019ec   Section        0  beep.o(i.BEEP_Init)
    i.BusFault_Handler                       0x08001a24   Section        0  stm32f10x_it.o(i.BusFault_Handler)
    i.CmdError                               0x08001a26   Section        0  sdio_sdcard.o(i.CmdError)
    i.CmdResp1Error                          0x08001a50   Section        0  sdio_sdcard.o(i.CmdResp1Error)
    i.CmdResp2Error                          0x08001aa0   Section        0  sdio_sdcard.o(i.CmdResp2Error)
    i.CmdResp3Error                          0x08001ae8   Section        0  sdio_sdcard.o(i.CmdResp3Error)
    i.CmdResp6Error                          0x08001b18   Section        0  sdio_sdcard.o(i.CmdResp6Error)
    i.CmdResp7Error                          0x08001b90   Section        0  sdio_sdcard.o(i.CmdResp7Error)
    i.DMA_Cmd                                0x08001bcc   Section        0  stm32f10x_dma.o(i.DMA_Cmd)
    i.DMA_DeInit                             0x08001be4   Section        0  stm32f10x_dma.o(i.DMA_DeInit)
    i.DMA_Init                               0x08001cc8   Section        0  stm32f10x_dma.o(i.DMA_Init)
    i.DS18B20_Get_Temp                       0x08001d04   Section        0  ds18b20.o(i.DS18B20_Get_Temp)
    i.DS18B20_Mode_IPU                       0x08001d6c   Section        0  ds18b20.o(i.DS18B20_Mode_IPU)
    DS18B20_Mode_IPU                         0x08001d6d   Thumb Code    26  ds18b20.o(i.DS18B20_Mode_IPU)
    i.DS18B20_Mode_Out_PP                    0x08001d8c   Section        0  ds18b20.o(i.DS18B20_Mode_Out_PP)
    DS18B20_Mode_Out_PP                      0x08001d8d   Thumb Code    32  ds18b20.o(i.DS18B20_Mode_Out_PP)
    i.DS18B20_Presence                       0x08001db0   Section        0  ds18b20.o(i.DS18B20_Presence)
    DS18B20_Presence                         0x08001db1   Thumb Code    88  ds18b20.o(i.DS18B20_Presence)
    i.DS18B20_Read_Byte                      0x08001e0c   Section        0  ds18b20.o(i.DS18B20_Read_Byte)
    i.DS18B20_Rst                            0x08001e64   Section        0  ds18b20.o(i.DS18B20_Rst)
    DS18B20_Rst                              0x08001e65   Thumb Code    46  ds18b20.o(i.DS18B20_Rst)
    i.DS18B20_Write_Byte                     0x08001e98   Section        0  ds18b20.o(i.DS18B20_Write_Byte)
    i.DebugMon_Handler                       0x08001ef8   Section        0  stm32f10x_it.o(i.DebugMon_Handler)
    i.Display_Data                           0x08001efc   Section        0  data_processing.o(i.Display_Data)
    i.EC_Value_Conversion                    0x08001f3c   Section        0  data_processing.o(i.EC_Value_Conversion)
    i.FSMC_NORSRAMCmd                        0x080020bc   Section        0  stm32f10x_fsmc.o(i.FSMC_NORSRAMCmd)
    i.FSMC_NORSRAMInit                       0x080020dc   Section        0  stm32f10x_fsmc.o(i.FSMC_NORSRAMInit)
    i.FindSCR                                0x080021a4   Section        0  sdio_sdcard.o(i.FindSCR)
    i.GPIO_Init                              0x080022dc   Section        0  stm32f10x_gpio.o(i.GPIO_Init)
    i.GPIO_PinRemapConfig                    0x08002378   Section        0  stm32f10x_gpio.o(i.GPIO_PinRemapConfig)
    i.GPIO_ReadInputDataBit                  0x080023d0   Section        0  stm32f10x_gpio.o(i.GPIO_ReadInputDataBit)
    i.GPIO_ResetBits                         0x080023de   Section        0  stm32f10x_gpio.o(i.GPIO_ResetBits)
    i.GPIO_SetBits                           0x080023e2   Section        0  stm32f10x_gpio.o(i.GPIO_SetBits)
    i.GPIO_WriteBit                          0x080023e6   Section        0  stm32f10x_gpio.o(i.GPIO_WriteBit)
    i.Get_HzMat                              0x080023f0   Section        0  text.o(i.Get_HzMat)
    i.HardFault_Handler                      0x0800247c   Section        0  stm32f10x_it.o(i.HardFault_Handler)
    i.INTX_DISABLE                           0x0800247e   Section        0  sys.o(i.INTX_DISABLE)
    i.INTX_ENABLE                            0x08002482   Section        0  sys.o(i.INTX_ENABLE)
    i.IsCardProgramming                      0x08002488   Section        0  sdio_sdcard.o(i.IsCardProgramming)
    i.KEY_Init                               0x08002514   Section        0  key.o(i.KEY_Init)
    i.KEY_Scan                               0x08002550   Section        0  key.o(i.KEY_Scan)
    i.LCD_Clear                              0x0800261c   Section        0  lcd.o(i.LCD_Clear)
    i.LCD_Display_Dir                        0x0800264c   Section        0  lcd.o(i.LCD_Display_Dir)
    i.LCD_Fast_DrawPoint                     0x08002704   Section        0  lcd.o(i.LCD_Fast_DrawPoint)
    i.LCD_Fill                               0x080027b0   Section        0  lcd.o(i.LCD_Fill)
    i.LCD_Init                               0x080027f8   Section        0  lcd.o(i.LCD_Init)
    i.LCD_RD_DATA                            0x08004640   Section        0  lcd.o(i.LCD_RD_DATA)
    i.LCD_SSD_BackLightSet                   0x08004654   Section        0  lcd.o(i.LCD_SSD_BackLightSet)
    i.LCD_Scan_Dir                           0x08004690   Section        0  lcd.o(i.LCD_Scan_Dir)
    i.LCD_SetCursor                          0x080047d4   Section        0  lcd.o(i.LCD_SetCursor)
    i.LCD_ShowChar                           0x08004888   Section        0  lcd.o(i.LCD_ShowChar)
    i.LCD_ShowString                         0x08004954   Section        0  lcd.o(i.LCD_ShowString)
    i.LCD_WriteRAM_Prepare                   0x080049a8   Section        0  lcd.o(i.LCD_WriteRAM_Prepare)
    i.LCD_WriteReg                           0x080049bc   Section        0  lcd.o(i.LCD_WriteReg)
    i.LED_Init                               0x080049cc   Section        0  led.o(i.LED_Init)
    i.MYDMA_SRAMLCD_Init                     0x08004a1c   Section        0  dma.o(i.MYDMA_SRAMLCD_Init)
    i.MemManage_Handler                      0x08004a6c   Section        0  stm32f10x_it.o(i.MemManage_Handler)
    i.NMI_Handler                            0x08004a6e   Section        0  stm32f10x_it.o(i.NMI_Handler)
    i.NVIC_Init                              0x08004a70   Section        0  misc.o(i.NVIC_Init)
    i.NVIC_PriorityGroupConfig               0x08004ad4   Section        0  misc.o(i.NVIC_PriorityGroupConfig)
    i.OLED_Clear                             0x08004ae8   Section        0  oled.o(i.OLED_Clear)
    i.OLED_I2C_Init                          0x08004b10   Section        0  oled.o(i.OLED_I2C_Init)
    i.OLED_I2C_SendByte                      0x08004b60   Section        0  oled.o(i.OLED_I2C_SendByte)
    i.OLED_I2C_Start                         0x08004bb4   Section        0  oled.o(i.OLED_I2C_Start)
    i.OLED_I2C_Stop                          0x08004be8   Section        0  oled.o(i.OLED_I2C_Stop)
    i.OLED_Init                              0x08004c14   Section        0  oled.o(i.OLED_Init)
    i.OLED_SetCursor                         0x08004cc0   Section        0  oled.o(i.OLED_SetCursor)
    i.OLED_ShowChar                          0x08004ce4   Section        0  oled.o(i.OLED_ShowChar)
    i.OLED_ShowString                        0x08004d4c   Section        0  oled.o(i.OLED_ShowString)
    i.OLED_WriteCommand                      0x08004d72   Section        0  oled.o(i.OLED_WriteCommand)
    i.OLED_WriteData                         0x08004d94   Section        0  oled.o(i.OLED_WriteData)
    i.OV2640_Auto_Exposure                   0x08004db8   Section        0  ov2640.o(i.OV2640_Auto_Exposure)
    i.OV2640_Brightness                      0x08004de0   Section        0  ov2640.o(i.OV2640_Brightness)
    i.OV2640_Color_Bar                       0x08004e1a   Section        0  ov2640.o(i.OV2640_Color_Bar)
    i.OV2640_Color_Saturation                0x08004e40   Section        0  ov2640.o(i.OV2640_Color_Saturation)
    i.OV2640_Contrast                        0x08004e80   Section        0  ov2640.o(i.OV2640_Contrast)
    i.OV2640_ImageSize_Set                   0x08004ef0   Section        0  ov2640.o(i.OV2640_ImageSize_Set)
    i.OV2640_ImageWin_Set                    0x08004f3e   Section        0  ov2640.o(i.OV2640_ImageWin_Set)
    i.OV2640_Init                            0x08004fc8   Section        0  ov2640.o(i.OV2640_Init)
    i.OV2640_JPEG_Mode                       0x0800515c   Section        0  ov2640.o(i.OV2640_JPEG_Mode)
    i.OV2640_Light_Mode                      0x0800519c   Section        0  ov2640.o(i.OV2640_Light_Mode)
    i.OV2640_OutSize_Set                     0x08005200   Section        0  ov2640.o(i.OV2640_OutSize_Set)
    i.OV2640_RGB565_Mode                     0x08005254   Section        0  ov2640.o(i.OV2640_RGB565_Mode)
    i.OV2640_Special_Effects                 0x08005278   Section        0  ov2640.o(i.OV2640_Special_Effects)
    i.OV2640_Window_Set                      0x080052e8   Section        0  ov2640.o(i.OV2640_Window_Set)
    i.PH_Value_Conversion                    0x08005364   Section        0  data_processing.o(i.PH_Value_Conversion)
    i.PendSV_Handler                         0x08005434   Section        0  stm32f10x_it.o(i.PendSV_Handler)
    i.RCC_ADCCLKConfig                       0x08005438   Section        0  stm32f10x_rcc.o(i.RCC_ADCCLKConfig)
    i.RCC_AHBPeriphClockCmd                  0x0800544c   Section        0  stm32f10x_rcc.o(i.RCC_AHBPeriphClockCmd)
    i.RCC_APB1PeriphClockCmd                 0x08005464   Section        0  stm32f10x_rcc.o(i.RCC_APB1PeriphClockCmd)
    i.RCC_APB2PeriphClockCmd                 0x0800547c   Section        0  stm32f10x_rcc.o(i.RCC_APB2PeriphClockCmd)
    i.RCC_GetClocksFreq                      0x08005494   Section        0  stm32f10x_rcc.o(i.RCC_GetClocksFreq)
    i.SCCB_Init                              0x08005528   Section        0  sccb.o(i.SCCB_Init)
    i.SCCB_No_Ack                            0x08005594   Section        0  sccb.o(i.SCCB_No_Ack)
    i.SCCB_RD_Byte                           0x080055d8   Section        0  sccb.o(i.SCCB_RD_Byte)
    i.SCCB_RD_Reg                            0x0800564c   Section        0  sccb.o(i.SCCB_RD_Reg)
    i.SCCB_Start                             0x08005698   Section        0  sccb.o(i.SCCB_Start)
    i.SCCB_Stop                              0x080056cc   Section        0  sccb.o(i.SCCB_Stop)
    i.SCCB_WR_Byte                           0x08005704   Section        0  sccb.o(i.SCCB_WR_Byte)
    i.SCCB_WR_Reg                            0x08005794   Section        0  sccb.o(i.SCCB_WR_Reg)
    i.SDEnWideBus                            0x080057d4   Section        0  sdio_sdcard.o(i.SDEnWideBus)
    i.SDIO_ClearFlag                         0x08005860   Section        0  stm32f10x_sdio.o(i.SDIO_ClearFlag)
    i.SDIO_ClockCmd                          0x0800586c   Section        0  stm32f10x_sdio.o(i.SDIO_ClockCmd)
    i.SDIO_Clock_Set                         0x08005878   Section        0  sdio_sdcard.o(i.SDIO_Clock_Set)
    i.SDIO_DMACmd                            0x0800588c   Section        0  stm32f10x_sdio.o(i.SDIO_DMACmd)
    i.SDIO_DataConfig                        0x08005898   Section        0  stm32f10x_sdio.o(i.SDIO_DataConfig)
    i.SDIO_DeInit                            0x080058c4   Section        0  stm32f10x_sdio.o(i.SDIO_DeInit)
    i.SDIO_GetFlagStatus                     0x080058e8   Section        0  stm32f10x_sdio.o(i.SDIO_GetFlagStatus)
    i.SDIO_GetPowerState                     0x080058fc   Section        0  stm32f10x_sdio.o(i.SDIO_GetPowerState)
    i.SDIO_IRQHandler                        0x0800590c   Section        0  sdio_sdcard.o(i.SDIO_IRQHandler)
    i.SDIO_Init                              0x08005910   Section        0  stm32f10x_sdio.o(i.SDIO_Init)
    i.SDIO_ReadData                          0x0800593c   Section        0  stm32f10x_sdio.o(i.SDIO_ReadData)
    i.SDIO_SendCommand                       0x08005948   Section        0  stm32f10x_sdio.o(i.SDIO_SendCommand)
    i.SDIO_SetPowerState                     0x08005970   Section        0  stm32f10x_sdio.o(i.SDIO_SetPowerState)
    i.SDIO_WriteData                         0x08005988   Section        0  stm32f10x_sdio.o(i.SDIO_WriteData)
    i.SD_DMA_Config                          0x08005994   Section        0  sdio_sdcard.o(i.SD_DMA_Config)
    i.SD_EnableWideBusOperation              0x080059f4   Section        0  sdio_sdcard.o(i.SD_EnableWideBusOperation)
    i.SD_GetCardInfo                         0x08005a40   Section        0  sdio_sdcard.o(i.SD_GetCardInfo)
    i.SD_Init                                0x08005c58   Section        0  sdio_sdcard.o(i.SD_Init)
    i.SD_InitializeCards                     0x08005d38   Section        0  sdio_sdcard.o(i.SD_InitializeCards)
    i.SD_PowerON                             0x08005e4c   Section        0  sdio_sdcard.o(i.SD_PowerON)
    i.SD_ProcessIRQSrc                       0x08005fe8   Section        0  sdio_sdcard.o(i.SD_ProcessIRQSrc)
    i.SD_ReadBlock                           0x080060d0   Section        0  sdio_sdcard.o(i.SD_ReadBlock)
    i.SD_ReadDisk                            0x080062c8   Section        0  sdio_sdcard.o(i.SD_ReadDisk)
    i.SD_ReadMultiBlocks                     0x08006340   Section        0  sdio_sdcard.o(i.SD_ReadMultiBlocks)
    i.SD_SelectDeselect                      0x080065a0   Section        0  sdio_sdcard.o(i.SD_SelectDeselect)
    i.SD_SetDeviceMode                       0x080065cc   Section        0  sdio_sdcard.o(i.SD_SetDeviceMode)
    i.SD_WriteBlock                          0x080065e4   Section        0  sdio_sdcard.o(i.SD_WriteBlock)
    i.SD_WriteDisk                           0x080068b0   Section        0  sdio_sdcard.o(i.SD_WriteDisk)
    i.SD_WriteMultiBlocks                    0x08006920   Section        0  sdio_sdcard.o(i.SD_WriteMultiBlocks)
    i.SPI2_Init                              0x08006c04   Section        0  spi.o(i.SPI2_Init)
    i.SPI2_ReadWriteByte                     0x08006c98   Section        0  spi.o(i.SPI2_ReadWriteByte)
    i.SPI2_SetSpeed                          0x08006ce8   Section        0  spi.o(i.SPI2_SetSpeed)
    i.SPI_Cmd                                0x08006d04   Section        0  stm32f10x_spi.o(i.SPI_Cmd)
    i.SPI_I2S_GetFlagStatus                  0x08006d18   Section        0  stm32f10x_spi.o(i.SPI_I2S_GetFlagStatus)
    i.SPI_I2S_ReceiveData                    0x08006d26   Section        0  stm32f10x_spi.o(i.SPI_I2S_ReceiveData)
    i.SPI_I2S_SendData                       0x08006d2a   Section        0  stm32f10x_spi.o(i.SPI_I2S_SendData)
    i.SPI_Init                               0x08006d2e   Section        0  stm32f10x_spi.o(i.SPI_Init)
    i.SVC_Handler                            0x08006d66   Section        0  stm32f10x_it.o(i.SVC_Handler)
    i.SetSysClockTo72                        0x08006d68   Section        0  system_stm32f10x.o(i.SetSysClockTo72)
    SetSysClockTo72                          0x08006d69   Thumb Code   160  system_stm32f10x.o(i.SetSysClockTo72)
    i.Show_Font                              0x08006e10   Section        0  text.o(i.Show_Font)
    i.Show_Str                               0x08006eb4   Section        0  text.o(i.Show_Str)
    i.SysTick_CLKSourceConfig                0x08006f62   Section        0  misc.o(i.SysTick_CLKSourceConfig)
    i.SysTick_Handler                        0x08006f7a   Section        0  stm32f10x_it.o(i.SysTick_Handler)
    i.SystemInit                             0x08006f7c   Section        0  system_stm32f10x.o(i.SystemInit)
    i.TDS_Value_Conversion                   0x08006fcc   Section        0  data_processing.o(i.TDS_Value_Conversion)
    i.TEMP_Value_Conversion                  0x0800716c   Section        0  data_processing.o(i.TEMP_Value_Conversion)
    i.TIM4_IRQHandler                        0x080071f8   Section        0  usmart.o(i.TIM4_IRQHandler)
    i.TIM6_IRQHandler                        0x08007234   Section        0  timer.o(i.TIM6_IRQHandler)
    i.TIM_ClearFlag                          0x08007274   Section        0  stm32f10x_tim.o(i.TIM_ClearFlag)
    i.TIM_ClearITPendingBit                  0x0800727a   Section        0  stm32f10x_tim.o(i.TIM_ClearITPendingBit)
    i.TIM_Cmd                                0x08007280   Section        0  stm32f10x_tim.o(i.TIM_Cmd)
    i.TIM_GetCounter                         0x08007294   Section        0  stm32f10x_tim.o(i.TIM_GetCounter)
    i.TIM_GetFlagStatus                      0x08007298   Section        0  stm32f10x_tim.o(i.TIM_GetFlagStatus)
    i.TIM_GetITStatus                        0x080072a6   Section        0  stm32f10x_tim.o(i.TIM_GetITStatus)
    i.TIM_ITConfig                           0x080072be   Section        0  stm32f10x_tim.o(i.TIM_ITConfig)
    i.TIM_SetAutoreload                      0x080072ce   Section        0  stm32f10x_tim.o(i.TIM_SetAutoreload)
    i.TIM_SetCounter                         0x080072d2   Section        0  stm32f10x_tim.o(i.TIM_SetCounter)
    i.TIM_TimeBaseInit                       0x080072d8   Section        0  stm32f10x_tim.o(i.TIM_TimeBaseInit)
    i.Timer4_Init                            0x08007374   Section        0  usmart.o(i.Timer4_Init)
    i.USART1_IRQHandler                      0x080073d4   Section        0  usart.o(i.USART1_IRQHandler)
    i.USART_Cmd                              0x08007438   Section        0  stm32f10x_usart.o(i.USART_Cmd)
    i.USART_GetFlagStatus                    0x0800744c   Section        0  stm32f10x_usart.o(i.USART_GetFlagStatus)
    i.USART_GetITStatus                      0x0800745a   Section        0  stm32f10x_usart.o(i.USART_GetITStatus)
    i.USART_ITConfig                         0x08007498   Section        0  stm32f10x_usart.o(i.USART_ITConfig)
    i.USART_Init                             0x080074c8   Section        0  stm32f10x_usart.o(i.USART_Init)
    i.USART_ReceiveData                      0x08007574   Section        0  stm32f10x_usart.o(i.USART_ReceiveData)
    i.USART_SendData                         0x0800757c   Section        0  stm32f10x_usart.o(i.USART_SendData)
    i.UsageFault_Handler                     0x08007584   Section        0  stm32f10x_it.o(i.UsageFault_Handler)
    i.W25QXX_Erase_Sector                    0x08007588   Section        0  w25qxx.o(i.W25QXX_Erase_Sector)
    i.W25QXX_Init                            0x080075e0   Section        0  w25qxx.o(i.W25QXX_Init)
    i.W25QXX_Read                            0x08007638   Section        0  w25qxx.o(i.W25QXX_Read)
    i.W25QXX_ReadID                          0x08007688   Section        0  w25qxx.o(i.W25QXX_ReadID)
    i.W25QXX_ReadSR                          0x080076cc   Section        0  w25qxx.o(i.W25QXX_ReadSR)
    i.W25QXX_Wait_Busy                       0x080076f0   Section        0  w25qxx.o(i.W25QXX_Wait_Busy)
    i.W25QXX_Write                           0x080076fc   Section        0  w25qxx.o(i.W25QXX_Write)
    i.W25QXX_Write_Enable                    0x080077a8   Section        0  w25qxx.o(i.W25QXX_Write_Enable)
    i.W25QXX_Write_NoCheck                   0x080077c8   Section        0  w25qxx.o(i.W25QXX_Write_NoCheck)
    i.W25QXX_Write_Page                      0x08007808   Section        0  w25qxx.o(i.W25QXX_Write_Page)
    i.__ARM_fpclassify                       0x08007860   Section        0  fpclassify.o(i.__ARM_fpclassify)
    i._is_digit                              0x08007888   Section        0  __printf_wp.o(i._is_digit)
    i._sys_exit                              0x08007896   Section        0  usart.o(i._sys_exit)
    i.camera_new_pathname                    0x08007898   Section        0  main.o(i.camera_new_pathname)
    i.check_fs                               0x08007900   Section        0  ff.o(i.check_fs)
    check_fs                                 0x08007901   Thumb Code    86  ff.o(i.check_fs)
    i.chk_chr                                0x0800795c   Section        0  ff.o(i.chk_chr)
    chk_chr                                  0x0800795d   Thumb Code    16  ff.o(i.chk_chr)
    i.clmt_clust                             0x0800796c   Section        0  ff.o(i.clmt_clust)
    clmt_clust                               0x0800796d   Thumb Code    36  ff.o(i.clmt_clust)
    i.clust2sect                             0x08007990   Section        0  ff.o(i.clust2sect)
    i.convert_from_bytes_to_power_of_two     0x080079a8   Section        0  sdio_sdcard.o(i.convert_from_bytes_to_power_of_two)
    i.create_chain                           0x080079ba   Section        0  ff.o(i.create_chain)
    create_chain                             0x080079bb   Thumb Code   158  ff.o(i.create_chain)
    i.create_name                            0x08007a58   Section        0  ff.o(i.create_name)
    create_name                              0x08007a59   Thumb Code   514  ff.o(i.create_name)
    i.delay1_ms                              0x08007c70   Section        0  delay1.o(i.delay1_ms)
    i.delay_init                             0x08007c98   Section        0  delay.o(i.delay_init)
    i.delay_ms                               0x08007cd4   Section        0  delay.o(i.delay_ms)
    i.delay_us                               0x08007d08   Section        0  delay.o(i.delay_us)
    i.dir_alloc                              0x08007d3c   Section        0  ff.o(i.dir_alloc)
    dir_alloc                                0x08007d3d   Thumb Code    66  ff.o(i.dir_alloc)
    i.dir_find                               0x08007d80   Section        0  ff.o(i.dir_find)
    dir_find                                 0x08007d81   Thumb Code   294  ff.o(i.dir_find)
    i.dir_next                               0x08007eac   Section        0  ff.o(i.dir_next)
    dir_next                                 0x08007ead   Thumb Code   230  ff.o(i.dir_next)
    i.dir_register                           0x08007f94   Section        0  ff.o(i.dir_register)
    dir_register                             0x08007f95   Thumb Code   352  ff.o(i.dir_register)
    i.dir_sdi                                0x080080f8   Section        0  ff.o(i.dir_sdi)
    i.disk_initialize                        0x08008174   Section        0  diskio.o(i.disk_initialize)
    i.disk_ioctl                             0x0800819c   Section        0  diskio.o(i.disk_ioctl)
    i.disk_read                              0x08008210   Section        0  diskio.o(i.disk_read)
    i.disk_status                            0x0800825c   Section        0  diskio.o(i.disk_status)
    i.disk_write                             0x08008260   Section        0  diskio.o(i.disk_write)
    i.exfuns_init                            0x080082ac   Section        0  exfuns.o(i.exfuns_init)
    i.f_close                                0x08008310   Section        0  ff.o(i.f_close)
    i.f_mkdir                                0x0800832c   Section        0  ff.o(i.f_mkdir)
    i.f_mount                                0x080084ac   Section        0  ff.o(i.f_mount)
    i.f_open                                 0x080084f8   Section        0  ff.o(i.f_open)
    i.f_sync                                 0x08008650   Section        0  ff.o(i.f_sync)
    i.f_write                                0x080086e8   Section        0  ff.o(i.f_write)
    i.ff_convert                             0x08008868   Section        0  mycc936.o(i.ff_convert)
    i.ff_memalloc                            0x080088d8   Section        0  diskio.o(i.ff_memalloc)
    i.ff_memfree                             0x080088e0   Section        0  diskio.o(i.ff_memfree)
    i.ff_wtoupper                            0x080088e8   Section        0  mycc936.o(i.ff_wtoupper)
    i.find_volume                            0x0800890c   Section        0  ff.o(i.find_volume)
    find_volume                              0x0800890d   Thumb Code   556  ff.o(i.find_volume)
    i.follow_path                            0x08008b44   Section        0  ff.o(i.follow_path)
    follow_path                              0x08008b45   Thumb Code   102  ff.o(i.follow_path)
    i.font_init                              0x08008bac   Section        0  fontupd.o(i.font_init)
    i.fputc                                  0x08008bec   Section        0  usart.o(i.fputc)
    i.gen_numname                            0x08008c04   Section        0  ff.o(i.gen_numname)
    gen_numname                              0x08008c05   Thumb Code   134  ff.o(i.gen_numname)
    i.get_fat                                0x08008c90   Section        0  ff.o(i.get_fat)
    i.get_fattime                            0x08008d4e   Section        0  diskio.o(i.get_fattime)
    i.get_ldnumber                           0x08008d52   Section        0  ff.o(i.get_ldnumber)
    get_ldnumber                             0x08008d53   Thumb Code    60  ff.o(i.get_ldnumber)
    i.ld_clust                               0x08008d8e   Section        0  ff.o(i.ld_clust)
    ld_clust                                 0x08008d8f   Thumb Code    18  ff.o(i.ld_clust)
    i.main                                   0x08008da0   Section        0  main.o(i.main)
    i.mem_cpy                                0x0800924c   Section        0  ff.o(i.mem_cpy)
    mem_cpy                                  0x0800924d   Thumb Code    16  ff.o(i.mem_cpy)
    i.mem_set                                0x0800925c   Section        0  ff.o(i.mem_set)
    mem_set                                  0x0800925d   Thumb Code    14  ff.o(i.mem_set)
    i.move_window                            0x0800926a   Section        0  ff.o(i.move_window)
    move_window                              0x0800926b   Thumb Code    50  ff.o(i.move_window)
    i.my_mem_free                            0x0800929c   Section        0  malloc.o(i.my_mem_free)
    i.my_mem_init                            0x080092f4   Section        0  malloc.o(i.my_mem_init)
    i.my_mem_malloc                          0x08009330   Section        0  malloc.o(i.my_mem_malloc)
    i.my_mem_perused                         0x080093bc   Section        0  malloc.o(i.my_mem_perused)
    i.myfree                                 0x080093f4   Section        0  malloc.o(i.myfree)
    i.mymalloc                               0x0800940c   Section        0  malloc.o(i.mymalloc)
    i.mymemset                               0x0800942c   Section        0  malloc.o(i.mymemset)
    i.ov2640_jpg_photo                       0x08009438   Section        0  main.o(i.ov2640_jpg_photo)
    i.ov2640_sendphoto                       0x08009564   Section        0  main.o(i.ov2640_sendphoto)
    i.ov2640_speed_ctrl                      0x0800976c   Section        0  main.o(i.ov2640_speed_ctrl)
    i.printf_Data                            0x080097b4   Section        0  data_processing.o(i.printf_Data)
    i.put_fat                                0x0800984c   Section        0  ff.o(i.put_fat)
    i.read_addr                              0x08009940   Section        0  usmart.o(i.read_addr)
    i.remove_chain                           0x08009944   Section        0  ff.o(i.remove_chain)
    remove_chain                             0x08009945   Thumb Code    98  ff.o(i.remove_chain)
    i.st_clust                               0x080099a6   Section        0  ff.o(i.st_clust)
    st_clust                                 0x080099a7   Thumb Code    16  ff.o(i.st_clust)
    i.sum_sfn                                0x080099b6   Section        0  ff.o(i.sum_sfn)
    sum_sfn                                  0x080099b7   Thumb Code    26  ff.o(i.sum_sfn)
    i.sync_fs                                0x080099d0   Section        0  ff.o(i.sync_fs)
    sync_fs                                  0x080099d1   Thumb Code   176  ff.o(i.sync_fs)
    i.sync_window                            0x08009a80   Section        0  ff.o(i.sync_window)
    sync_window                              0x08009a81   Thumb Code    82  ff.o(i.sync_window)
    i.uart_init                              0x08009ad4   Section        0  usart.o(i.uart_init)
    i.usmart_cmd_rec                         0x08009b74   Section        0  usmart.o(i.usmart_cmd_rec)
    i.usmart_exe                             0x08009c08   Section        0  usmart.o(i.usmart_exe)
    i.usmart_get_aparm                       0x08009e68   Section        0  usmart_str.o(i.usmart_get_aparm)
    i.usmart_get_cmdname                     0x08009f04   Section        0  usmart_str.o(i.usmart_get_cmdname)
    i.usmart_get_fname                       0x08009f34   Section        0  usmart_str.o(i.usmart_get_fname)
    i.usmart_get_fparam                      0x0800a09c   Section        0  usmart_str.o(i.usmart_get_fparam)
    i.usmart_get_parmpos                     0x0800a16c   Section        0  usmart_str.o(i.usmart_get_parmpos)
    i.usmart_get_runtime                     0x0800a190   Section        0  usmart.o(i.usmart_get_runtime)
    i.usmart_init                            0x0800a1c8   Section        0  usmart.o(i.usmart_init)
    i.usmart_pow                             0x0800a1f0   Section        0  usmart_str.o(i.usmart_pow)
    i.usmart_reset_runtime                   0x0800a200   Section        0  usmart.o(i.usmart_reset_runtime)
    i.usmart_scan                            0x0800a230   Section        0  usmart.o(i.usmart_scan)
    i.usmart_search_nextc                    0x0800a2d4   Section        0  usmart_str.o(i.usmart_search_nextc)
    i.usmart_str2num                         0x0800a2e4   Section        0  usmart_str.o(i.usmart_str2num)
    i.usmart_strcmp                          0x0800a384   Section        0  usmart_str.o(i.usmart_strcmp)
    i.usmart_strcopy                         0x0800a39c   Section        0  usmart_str.o(i.usmart_strcopy)
    i.usmart_strlen                          0x0800a3ae   Section        0  usmart_str.o(i.usmart_strlen)
    i.usmart_sys_cmd_exe                     0x0800a3c0   Section        0  usmart.o(i.usmart_sys_cmd_exe)
    i.validate                               0x0800aa30   Section        0  ff.o(i.validate)
    validate                                 0x0800aa31   Thumb Code    38  ff.o(i.validate)
    i.write_addr                             0x0800aa56   Section        0  usmart.o(i.write_addr)
    locale$$code                             0x0800aa5c   Section       44  lc_numeric_c.o(locale$$code)
    x$fpl$d2f                                0x0800aa88   Section       98  d2f.o(x$fpl$d2f)
    x$fpl$dadd                               0x0800aaec   Section      336  daddsub_clz.o(x$fpl$dadd)
    _dadd1                                   0x0800aafd   Thumb Code     0  daddsub_clz.o(x$fpl$dadd)
    x$fpl$dcheck1                            0x0800ac3c   Section       16  dcheck1.o(x$fpl$dcheck1)
    x$fpl$ddiv                               0x0800ac4c   Section      688  ddiv.o(x$fpl$ddiv)
    ddiv_entry                               0x0800ac53   Thumb Code     0  ddiv.o(x$fpl$ddiv)
    x$fpl$dfixu                              0x0800aefc   Section       90  dfixu.o(x$fpl$dfixu)
    x$fpl$dflt                               0x0800af56   Section       46  dflt_clz.o(x$fpl$dflt)
    x$fpl$dfltu                              0x0800af84   Section       38  dflt_clz.o(x$fpl$dfltu)
    x$fpl$dmul                               0x0800afac   Section      340  dmul.o(x$fpl$dmul)
    x$fpl$dnaninf                            0x0800b100   Section      156  dnaninf.o(x$fpl$dnaninf)
    x$fpl$dretinf                            0x0800b19c   Section       12  dretinf.o(x$fpl$dretinf)
    x$fpl$dsub                               0x0800b1a8   Section      468  daddsub_clz.o(x$fpl$dsub)
    _dsub1                                   0x0800b1b9   Thumb Code     0  daddsub_clz.o(x$fpl$dsub)
    x$fpl$f2d                                0x0800b37c   Section       86  f2d.o(x$fpl$f2d)
    x$fpl$fcheck1                            0x0800b3d4   Section       12  fcheck1.o(x$fpl$fcheck1)
    x$fpl$fdiv                               0x0800b3e0   Section      388  fdiv.o(x$fpl$fdiv)
    _fdiv1                                   0x0800b3e1   Thumb Code     0  fdiv.o(x$fpl$fdiv)
    x$fpl$ffix                               0x0800b564   Section       54  ffix.o(x$fpl$ffix)
    x$fpl$ffltu                              0x0800b59c   Section       38  fflt_clz.o(x$fpl$ffltu)
    x$fpl$fmul                               0x0800b5c4   Section      258  fmul.o(x$fpl$fmul)
    x$fpl$fnaninf                            0x0800b6c6   Section      140  fnaninf.o(x$fpl$fnaninf)
    x$fpl$fretinf                            0x0800b752   Section       10  fretinf.o(x$fpl$fretinf)
    x$fpl$printf1                            0x0800b75c   Section        4  printf1.o(x$fpl$printf1)
    x$fpl$retnan                             0x0800b760   Section      100  retnan.o(x$fpl$retnan)
    x$fpl$scalbn                             0x0800b7c4   Section       92  scalbn.o(x$fpl$scalbn)
    x$fpl$scalbnf                            0x0800b820   Section       76  scalbnf.o(x$fpl$scalbnf)
    x$fpl$trapveneer                         0x0800b86c   Section       48  trapv.o(x$fpl$trapveneer)
    .constdata                               0x0800b89c   Section       20  main.o(.constdata)
    x$fpl$usenofp                            0x0800b89c   Section        0  usenofp.o(x$fpl$usenofp)
    .constdata                               0x0800b8b0   Section     6080  lcd.o(.constdata)
    .constdata                               0x0800d070   Section      454  ov2640.o(.constdata)
    OV2640_AUTOEXPOSURE_LEVEL                0x0800d20e   Data          40  ov2640.o(.constdata)
    .constdata                               0x0800d236   Section     1520  oled.o(.constdata)
    .constdata                               0x0800d828   Section       24  malloc.o(.constdata)
    .constdata                               0x0800d840   Section       58  ff.o(.constdata)
    LfnOfs                                   0x0800d840   Data          13  ff.o(.constdata)
    vst                                      0x0800d84e   Data          22  ff.o(.constdata)
    cst                                      0x0800d864   Data          22  ff.o(.constdata)
    .constdata                               0x0800d87a   Section      960  mycc936.o(.constdata)
    tbl_lower                                0x0800d87a   Data         480  mycc936.o(.constdata)
    tbl_upper                                0x0800da5a   Data         480  mycc936.o(.constdata)
    .constdata                               0x0800dc3a   Section       40  _printf_hex_int.o(.constdata)
    uc_hextab                                0x0800dc3a   Data          20  _printf_hex_int.o(.constdata)
    lc_hextab                                0x0800dc4e   Data          20  _printf_hex_int.o(.constdata)
    .constdata                               0x0800dc62   Section       17  __printf_flags_ss_wp.o(.constdata)
    maptable                                 0x0800dc62   Data          17  __printf_flags_ss_wp.o(.constdata)
    .constdata                               0x0800dc74   Section      148  bigflt0.o(.constdata)
    tenpwrs_x                                0x0800dc74   Data          60  bigflt0.o(.constdata)
    tenpwrs_i                                0x0800dcb0   Data          64  bigflt0.o(.constdata)
    .conststring                             0x0800dd08   Section       60  main.o(.conststring)
    .conststring                             0x0800dd44   Section       40  usmart.o(.conststring)
    .conststring                             0x0800dd6c   Section      633  usmart_config.o(.conststring)
    locale$$data                             0x0800e008   Section       28  lc_numeric_c.o(locale$$data)
    __lcnum_c_name                           0x0800e00c   Data           2  lc_numeric_c.o(locale$$data)
    __lcnum_c_start                          0x0800e014   Data           0  lc_numeric_c.o(locale$$data)
    __lcnum_c_point                          0x0800e020   Data           0  lc_numeric_c.o(locale$$data)
    __lcnum_c_thousands                      0x0800e022   Data           0  lc_numeric_c.o(locale$$data)
    __lcnum_c_grouping                       0x0800e023   Data           0  lc_numeric_c.o(locale$$data)
    __lcnum_c_end                            0x0800e024   Data           0  lc_numeric_c.o(locale$$data)
    .data                                    0x20000000   Section       40  main.o(.data)
    .data                                    0x20000028   Section       20  system_stm32f10x.o(.data)
    .data                                    0x2000003c   Section        1  key.o(.data)
    key_up                                   0x2000003c   Data           1  key.o(.data)
    .data                                    0x2000003e   Section        4  lcd.o(.data)
    .data                                    0x20000042   Section        2  w25qxx.o(.data)
    .data                                    0x20000044   Section       16  sdio_sdcard.o(.data)
    CardType                                 0x20000044   Data           1  sdio_sdcard.o(.data)
    DeviceMode                               0x20000045   Data           1  sdio_sdcard.o(.data)
    StopCondition                            0x20000046   Data           1  sdio_sdcard.o(.data)
    RCA                                      0x2000004c   Data           4  sdio_sdcard.o(.data)
    .data                                    0x20000054   Section        1  timer.o(.data)
    .data                                    0x20000056   Section        4  delay.o(.data)
    fac_us                                   0x20000056   Data           1  delay.o(.data)
    fac_ms                                   0x20000058   Data           2  delay.o(.data)
    .data                                    0x2000005a   Section        2  usart.o(.data)
    .data                                    0x2000005c   Section        4  usart.o(.data)
    .data                                    0x20000060   Section       20  stm32f10x_rcc.o(.data)
    ADCPrescTable                            0x20000060   Data           4  stm32f10x_rcc.o(.data)
    APBAHBPrescTable                         0x20000064   Data          16  stm32f10x_rcc.o(.data)
    .data                                    0x20000074   Section       28  malloc.o(.data)
    .data                                    0x20000090   Section        2  diskio.o(.data)
    .data                                    0x20000094   Section       12  ff.o(.data)
    Fsid                                     0x20000094   Data           2  ff.o(.data)
    FatFs                                    0x20000098   Data           8  ff.o(.data)
    .data                                    0x200000a0   Section       20  exfuns.o(.data)
    .data                                    0x200000b4   Section       28  usmart.o(.data)
    .data                                    0x200000d0   Section      136  usmart_config.o(.data)
    .data                                    0x20000158   Section      244  usmart_config.o(.data)
    .data                                    0x2000024c   Section        6  bsp_adc.o(.data)
    .data                                    0x20000254   Section       56  data_processing.o(.data)
    .bss                                     0x2000028c   Section       14  lcd.o(.bss)
    .bss                                     0x200002a0   Section      704  sdio_sdcard.o(.bss)
    CSD_Tab                                  0x200002e4   Data          16  sdio_sdcard.o(.bss)
    CID_Tab                                  0x200002f4   Data          16  sdio_sdcard.o(.bss)
    .bss                                     0x20000560   Section      200  usart.o(.bss)
    .bss                                     0x20000640   Section    58368  malloc.o(.bss)
    .bss                                     0x2000ea40   Section     3648  malloc.o(.bss)
    .bss                                     0x2000f880   Section       33  fontupd.o(.bss)
    .bss                                     0x2000f8a1   Section       20  data_processing.o(.bss)
    .bss                                     0x2000f8b8   Section       96  libspace.o(.bss)
    HEAP                                     0x2000f918   Section        0  startup_stm32f10x_hd.o(HEAP)
    STACK                                    0x2000f918   Section     1024  startup_stm32f10x_hd.o(STACK)
    Heap_Mem                                 0x2000f918   Data           0  startup_stm32f10x_hd.o(HEAP)
    Stack_Mem                                0x2000f918   Data        1024  startup_stm32f10x_hd.o(STACK)
    __initial_sp                             0x2000fd18   Data           0  startup_stm32f10x_hd.o(STACK)
    .ARM.__AT_0x68000000                     0x68000000   Section       32  malloc.o(.ARM.__AT_0x68000000)
    .ARM.__AT_0x68000020                     0x68000020   Section        2  malloc.o(.ARM.__AT_0x68000020)

    Global Symbols

    Symbol Name                              Value     Ov Type        Size  Object(Section)

    BuildAttributes$$THM_ISAv4$P$D$K$B$S$PE$A:L22UL41UL21$X:L11$S22US41US21$IEEE1$IW$USESV6$~STKCKD$USESV7$~SHL$OTIME$ROPI$IEEEJ$EBA8$UX$STANDARDLIB$REQ8$PRES8$EABIv2 0x00000000   Number         0  anon$$obj.o ABSOLUTE
    __ARM_use_no_argv                        0x00000000   Number         0  main.o ABSOLUTE
    _printf_flags                            0x00000000   Number         0  printf_stubs.o ABSOLUTE
    _printf_return_value                     0x00000000   Number         0  printf_stubs.o ABSOLUTE
    _printf_sizespec                         0x00000000   Number         0  printf_stubs.o ABSOLUTE
    _printf_widthprec                        0x00000000   Number         0  printf_stubs.o ABSOLUTE
    __ARM_exceptions_init                     - Undefined Weak Reference
    __alloca_initialize                       - Undefined Weak Reference
    __arm_preinit_                            - Undefined Weak Reference
    __cpp_initialize__aeabi_                  - Undefined Weak Reference
    __cxa_finalize                            - Undefined Weak Reference
    __sigvec_lookup                           - Undefined Weak Reference
    _atexit_init                              - Undefined Weak Reference
    _call_atexit_fns                          - Undefined Weak Reference
    _clock_init                               - Undefined Weak Reference
    _fp_trap_init                             - Undefined Weak Reference
    _fp_trap_shutdown                         - Undefined Weak Reference
    _get_lc_collate                           - Undefined Weak Reference
    _get_lc_ctype                             - Undefined Weak Reference
    _get_lc_monetary                          - Undefined Weak Reference
    _get_lc_time                              - Undefined Weak Reference
    _getenv_init                              - Undefined Weak Reference
    _handle_redirection                       - Undefined Weak Reference
    _init_alloc                               - Undefined Weak Reference
    _init_user_alloc                          - Undefined Weak Reference
    _initio                                   - Undefined Weak Reference
    _mutex_acquire                            - Undefined Weak Reference
    _mutex_release                            - Undefined Weak Reference
    _printf_mbtowc                            - Undefined Weak Reference
    _printf_truncate_signed                   - Undefined Weak Reference
    _printf_truncate_unsigned                 - Undefined Weak Reference
    _rand_init                                - Undefined Weak Reference
    _signal_finish                            - Undefined Weak Reference
    _signal_init                              - Undefined Weak Reference
    _terminate_alloc                          - Undefined Weak Reference
    _terminate_user_alloc                     - Undefined Weak Reference
    _terminateio                              - Undefined Weak Reference
    __Vectors_Size                           0x00000130   Number         0  startup_stm32f10x_hd.o ABSOLUTE
    __Vectors                                0x08000000   Data           4  startup_stm32f10x_hd.o(RESET)
    __Vectors_End                            0x08000130   Data           0  startup_stm32f10x_hd.o(RESET)
    __main                                   0x08000131   Thumb Code     8  __main.o(!!!main)
    __scatterload                            0x08000139   Thumb Code     0  __scatter.o(!!!scatter)
    __scatterload_rt2                        0x08000139   Thumb Code    44  __scatter.o(!!!scatter)
    __scatterload_rt2_thumb_only             0x08000139   Thumb Code     0  __scatter.o(!!!scatter)
    __scatterload_null                       0x08000147   Thumb Code     0  __scatter.o(!!!scatter)
    __decompress                             0x0800016d   Thumb Code    90  __dczerorl2.o(!!dczerorl2)
    __decompress1                            0x0800016d   Thumb Code     0  __dczerorl2.o(!!dczerorl2)
    __scatterload_zeroinit                   0x080001c9   Thumb Code    28  __scatter_zi.o(!!handler_zi)
    _printf_f                                0x080001e5   Thumb Code     0  _printf_f.o(.ARM.Collect$$_printf_percent$$00000003)
    _printf_percent                          0x080001e5   Thumb Code     0  _printf_percent.o(.ARM.Collect$$_printf_percent$$00000000)
    _printf_d                                0x080001eb   Thumb Code     0  _printf_d.o(.ARM.Collect$$_printf_percent$$00000009)
    _printf_u                                0x080001f1   Thumb Code     0  _printf_u.o(.ARM.Collect$$_printf_percent$$0000000A)
    _printf_x                                0x080001f7   Thumb Code     0  _printf_x.o(.ARM.Collect$$_printf_percent$$0000000C)
    _printf_c                                0x080001fd   Thumb Code     0  _printf_c.o(.ARM.Collect$$_printf_percent$$00000013)
    _printf_s                                0x08000203   Thumb Code     0  _printf_s.o(.ARM.Collect$$_printf_percent$$00000014)
    _printf_percent_end                      0x08000209   Thumb Code     0  _printf_percent_end.o(.ARM.Collect$$_printf_percent$$00000017)
    __rt_lib_init                            0x0800020d   Thumb Code     0  libinit.o(.ARM.Collect$$libinit$$00000000)
    __rt_lib_init_fp_1                       0x0800020f   Thumb Code     0  libinit2.o(.ARM.Collect$$libinit$$00000002)
    __rt_lib_init_heap_1                     0x0800020f   Thumb Code     0  libinit2.o(.ARM.Collect$$libinit$$0000000A)
    __rt_lib_init_lc_common                  0x0800020f   Thumb Code     0  libinit2.o(.ARM.Collect$$libinit$$0000000F)
    __rt_lib_init_preinit_1                  0x0800020f   Thumb Code     0  libinit2.o(.ARM.Collect$$libinit$$00000004)
    __rt_lib_init_rand_1                     0x0800020f   Thumb Code     0  libinit2.o(.ARM.Collect$$libinit$$0000000E)
    __rt_lib_init_user_alloc_1               0x0800020f   Thumb Code     0  libinit2.o(.ARM.Collect$$libinit$$0000000C)
    __rt_lib_init_lc_collate_1               0x08000215   Thumb Code     0  libinit2.o(.ARM.Collect$$libinit$$00000011)
    __rt_lib_init_lc_ctype_1                 0x08000215   Thumb Code     0  libinit2.o(.ARM.Collect$$libinit$$00000013)
    __rt_lib_init_lc_monetary_1              0x08000215   Thumb Code     0  libinit2.o(.ARM.Collect$$libinit$$00000015)
    __rt_lib_init_lc_numeric_2               0x08000215   Thumb Code     0  libinit2.o(.ARM.Collect$$libinit$$00000016)
    __rt_lib_init_alloca_1                   0x0800021f   Thumb Code     0  libinit2.o(.ARM.Collect$$libinit$$0000002E)
    __rt_lib_init_argv_1                     0x0800021f   Thumb Code     0  libinit2.o(.ARM.Collect$$libinit$$0000002C)
    __rt_lib_init_atexit_1                   0x0800021f   Thumb Code     0  libinit2.o(.ARM.Collect$$libinit$$0000001B)
    __rt_lib_init_clock_1                    0x0800021f   Thumb Code     0  libinit2.o(.ARM.Collect$$libinit$$00000021)
    __rt_lib_init_cpp_1                      0x0800021f   Thumb Code     0  libinit2.o(.ARM.Collect$$libinit$$00000032)
    __rt_lib_init_exceptions_1               0x0800021f   Thumb Code     0  libinit2.o(.ARM.Collect$$libinit$$00000030)
    __rt_lib_init_fp_trap_1                  0x0800021f   Thumb Code     0  libinit2.o(.ARM.Collect$$libinit$$0000001F)
    __rt_lib_init_getenv_1                   0x0800021f   Thumb Code     0  libinit2.o(.ARM.Collect$$libinit$$00000023)
    __rt_lib_init_lc_numeric_1               0x0800021f   Thumb Code     0  libinit2.o(.ARM.Collect$$libinit$$00000017)
    __rt_lib_init_lc_time_1                  0x0800021f   Thumb Code     0  libinit2.o(.ARM.Collect$$libinit$$00000019)
    __rt_lib_init_return                     0x0800021f   Thumb Code     0  libinit2.o(.ARM.Collect$$libinit$$00000033)
    __rt_lib_init_signal_1                   0x0800021f   Thumb Code     0  libinit2.o(.ARM.Collect$$libinit$$0000001D)
    __rt_lib_init_stdio_1                    0x0800021f   Thumb Code     0  libinit2.o(.ARM.Collect$$libinit$$00000025)
    __rt_lib_shutdown                        0x08000221   Thumb Code     0  libshutdown.o(.ARM.Collect$$libshutdown$$00000000)
    __rt_lib_shutdown_cpp_1                  0x08000223   Thumb Code     0  libshutdown2.o(.ARM.Collect$$libshutdown$$00000002)
    __rt_lib_shutdown_fp_trap_1              0x08000223   Thumb Code     0  libshutdown2.o(.ARM.Collect$$libshutdown$$00000007)
    __rt_lib_shutdown_heap_1                 0x08000223   Thumb Code     0  libshutdown2.o(.ARM.Collect$$libshutdown$$0000000F)
    __rt_lib_shutdown_return                 0x08000223   Thumb Code     0  libshutdown2.o(.ARM.Collect$$libshutdown$$00000010)
    __rt_lib_shutdown_signal_1               0x08000223   Thumb Code     0  libshutdown2.o(.ARM.Collect$$libshutdown$$0000000A)
    __rt_lib_shutdown_stdio_1                0x08000223   Thumb Code     0  libshutdown2.o(.ARM.Collect$$libshutdown$$00000004)
    __rt_lib_shutdown_user_alloc_1           0x08000223   Thumb Code     0  libshutdown2.o(.ARM.Collect$$libshutdown$$0000000C)
    __rt_entry                               0x08000225   Thumb Code     0  __rtentry.o(.ARM.Collect$$rtentry$$00000000)
    __rt_entry_presh_1                       0x08000225   Thumb Code     0  __rtentry2.o(.ARM.Collect$$rtentry$$00000002)
    __rt_entry_sh                            0x08000225   Thumb Code     0  __rtentry4.o(.ARM.Collect$$rtentry$$00000004)
    __rt_entry_li                            0x0800022b   Thumb Code     0  __rtentry2.o(.ARM.Collect$$rtentry$$0000000A)
    __rt_entry_postsh_1                      0x0800022b   Thumb Code     0  __rtentry2.o(.ARM.Collect$$rtentry$$00000009)
    __rt_entry_main                          0x0800022f   Thumb Code     0  __rtentry2.o(.ARM.Collect$$rtentry$$0000000D)
    __rt_entry_postli_1                      0x0800022f   Thumb Code     0  __rtentry2.o(.ARM.Collect$$rtentry$$0000000C)
    __rt_exit                                0x08000237   Thumb Code     0  rtexit.o(.ARM.Collect$$rtexit$$00000000)
    __rt_exit_ls                             0x08000239   Thumb Code     0  rtexit2.o(.ARM.Collect$$rtexit$$00000003)
    __rt_exit_prels_1                        0x08000239   Thumb Code     0  rtexit2.o(.ARM.Collect$$rtexit$$00000002)
    __rt_exit_exit                           0x0800023d   Thumb Code     0  rtexit2.o(.ARM.Collect$$rtexit$$00000004)
    Reset_Handler                            0x08000245   Thumb Code     8  startup_stm32f10x_hd.o(.text)
    ADC1_2_IRQHandler                        0x0800025f   Thumb Code     0  startup_stm32f10x_hd.o(.text)
    ADC3_IRQHandler                          0x0800025f   Thumb Code     0  startup_stm32f10x_hd.o(.text)
    CAN1_RX1_IRQHandler                      0x0800025f   Thumb Code     0  startup_stm32f10x_hd.o(.text)
    CAN1_SCE_IRQHandler                      0x0800025f   Thumb Code     0  startup_stm32f10x_hd.o(.text)
    DMA1_Channel1_IRQHandler                 0x0800025f   Thumb Code     0  startup_stm32f10x_hd.o(.text)
    DMA1_Channel2_IRQHandler                 0x0800025f   Thumb Code     0  startup_stm32f10x_hd.o(.text)
    DMA1_Channel3_IRQHandler                 0x0800025f   Thumb Code     0  startup_stm32f10x_hd.o(.text)
    DMA1_Channel4_IRQHandler                 0x0800025f   Thumb Code     0  startup_stm32f10x_hd.o(.text)
    DMA1_Channel5_IRQHandler                 0x0800025f   Thumb Code     0  startup_stm32f10x_hd.o(.text)
    DMA1_Channel6_IRQHandler                 0x0800025f   Thumb Code     0  startup_stm32f10x_hd.o(.text)
    DMA1_Channel7_IRQHandler                 0x0800025f   Thumb Code     0  startup_stm32f10x_hd.o(.text)
    DMA2_Channel1_IRQHandler                 0x0800025f   Thumb Code     0  startup_stm32f10x_hd.o(.text)
    DMA2_Channel2_IRQHandler                 0x0800025f   Thumb Code     0  startup_stm32f10x_hd.o(.text)
    DMA2_Channel3_IRQHandler                 0x0800025f   Thumb Code     0  startup_stm32f10x_hd.o(.text)
    DMA2_Channel4_5_IRQHandler               0x0800025f   Thumb Code     0  startup_stm32f10x_hd.o(.text)
    EXTI0_IRQHandler                         0x0800025f   Thumb Code     0  startup_stm32f10x_hd.o(.text)
    EXTI15_10_IRQHandler                     0x0800025f   Thumb Code     0  startup_stm32f10x_hd.o(.text)
    EXTI1_IRQHandler                         0x0800025f   Thumb Code     0  startup_stm32f10x_hd.o(.text)
    EXTI2_IRQHandler                         0x0800025f   Thumb Code     0  startup_stm32f10x_hd.o(.text)
    EXTI3_IRQHandler                         0x0800025f   Thumb Code     0  startup_stm32f10x_hd.o(.text)
    EXTI4_IRQHandler                         0x0800025f   Thumb Code     0  startup_stm32f10x_hd.o(.text)
    EXTI9_5_IRQHandler                       0x0800025f   Thumb Code     0  startup_stm32f10x_hd.o(.text)
    FLASH_IRQHandler                         0x0800025f   Thumb Code     0  startup_stm32f10x_hd.o(.text)
    FSMC_IRQHandler                          0x0800025f   Thumb Code     0  startup_stm32f10x_hd.o(.text)
    I2C1_ER_IRQHandler                       0x0800025f   Thumb Code     0  startup_stm32f10x_hd.o(.text)
    I2C1_EV_IRQHandler                       0x0800025f   Thumb Code     0  startup_stm32f10x_hd.o(.text)
    I2C2_ER_IRQHandler                       0x0800025f   Thumb Code     0  startup_stm32f10x_hd.o(.text)
    I2C2_EV_IRQHandler                       0x0800025f   Thumb Code     0  startup_stm32f10x_hd.o(.text)
    PVD_IRQHandler                           0x0800025f   Thumb Code     0  startup_stm32f10x_hd.o(.text)
    RCC_IRQHandler                           0x0800025f   Thumb Code     0  startup_stm32f10x_hd.o(.text)
    RTCAlarm_IRQHandler                      0x0800025f   Thumb Code     0  startup_stm32f10x_hd.o(.text)
    RTC_IRQHandler                           0x0800025f   Thumb Code     0  startup_stm32f10x_hd.o(.text)
    SPI1_IRQHandler                          0x0800025f   Thumb Code     0  startup_stm32f10x_hd.o(.text)
    SPI2_IRQHandler                          0x0800025f   Thumb Code     0  startup_stm32f10x_hd.o(.text)
    SPI3_IRQHandler                          0x0800025f   Thumb Code     0  startup_stm32f10x_hd.o(.text)
    TAMPER_IRQHandler                        0x0800025f   Thumb Code     0  startup_stm32f10x_hd.o(.text)
    TIM1_BRK_IRQHandler                      0x0800025f   Thumb Code     0  startup_stm32f10x_hd.o(.text)
    TIM1_CC_IRQHandler                       0x0800025f   Thumb Code     0  startup_stm32f10x_hd.o(.text)
    TIM1_TRG_COM_IRQHandler                  0x0800025f   Thumb Code     0  startup_stm32f10x_hd.o(.text)
    TIM1_UP_IRQHandler                       0x0800025f   Thumb Code     0  startup_stm32f10x_hd.o(.text)
    TIM2_IRQHandler                          0x0800025f   Thumb Code     0  startup_stm32f10x_hd.o(.text)
    TIM3_IRQHandler                          0x0800025f   Thumb Code     0  startup_stm32f10x_hd.o(.text)
    TIM5_IRQHandler                          0x0800025f   Thumb Code     0  startup_stm32f10x_hd.o(.text)
    TIM7_IRQHandler                          0x0800025f   Thumb Code     0  startup_stm32f10x_hd.o(.text)
    TIM8_BRK_IRQHandler                      0x0800025f   Thumb Code     0  startup_stm32f10x_hd.o(.text)
    TIM8_CC_IRQHandler                       0x0800025f   Thumb Code     0  startup_stm32f10x_hd.o(.text)
    TIM8_TRG_COM_IRQHandler                  0x0800025f   Thumb Code     0  startup_stm32f10x_hd.o(.text)
    TIM8_UP_IRQHandler                       0x0800025f   Thumb Code     0  startup_stm32f10x_hd.o(.text)
    UART4_IRQHandler                         0x0800025f   Thumb Code     0  startup_stm32f10x_hd.o(.text)
    UART5_IRQHandler                         0x0800025f   Thumb Code     0  startup_stm32f10x_hd.o(.text)
    USART2_IRQHandler                        0x0800025f   Thumb Code     0  startup_stm32f10x_hd.o(.text)
    USART3_IRQHandler                        0x0800025f   Thumb Code     0  startup_stm32f10x_hd.o(.text)
    USBWakeUp_IRQHandler                     0x0800025f   Thumb Code     0  startup_stm32f10x_hd.o(.text)
    USB_HP_CAN1_TX_IRQHandler                0x0800025f   Thumb Code     0  startup_stm32f10x_hd.o(.text)
    USB_LP_CAN1_RX0_IRQHandler               0x0800025f   Thumb Code     0  startup_stm32f10x_hd.o(.text)
    WWDG_IRQHandler                          0x0800025f   Thumb Code     0  startup_stm32f10x_hd.o(.text)
    __user_initial_stackheap                 0x08000261   Thumb Code     0  startup_stm32f10x_hd.o(.text)
    __use_no_semihosting                     0x08000281   Thumb Code     2  use_no_semi_2.o(.text)
    __aeabi_ldivmod                          0x08000283   Thumb Code     0  llsdiv.o(.text)
    _ll_sdiv                                 0x08000283   Thumb Code    72  llsdiv.o(.text)
    __2printf                                0x080002cd   Thumb Code    20  noretval__2printf.o(.text)
    __2sprintf                               0x080002e5   Thumb Code    34  noretval__2sprintf.o(.text)
    _printf_pre_padding                      0x0800030d   Thumb Code    44  _printf_pad.o(.text)
    _printf_post_padding                     0x08000339   Thumb Code    34  _printf_pad.o(.text)
    _printf_str                              0x0800035b   Thumb Code    82  _printf_str.o(.text)
    _printf_int_dec                          0x080003ad   Thumb Code   104  _printf_dec.o(.text)
    _printf_int_hex                          0x08000425   Thumb Code    84  _printf_hex_int.o(.text)
    _printf_longlong_hex                     0x08000425   Thumb Code     0  _printf_hex_int.o(.text)
    __printf                                 0x0800047d   Thumb Code   388  __printf_flags_ss_wp.o(.text)
    __aeabi_memcpy                           0x08000605   Thumb Code     0  rt_memcpy_v6.o(.text)
    __rt_memcpy                              0x08000605   Thumb Code   138  rt_memcpy_v6.o(.text)
    _memcpy_lastbytes                        0x0800066b   Thumb Code     0  rt_memcpy_v6.o(.text)
    strcmp                                   0x08000691   Thumb Code   128  strcmpv7m.o(.text)
    __use_two_region_memory                  0x08000711   Thumb Code     2  heapauxi.o(.text)
    __rt_heap_escrow$2region                 0x08000713   Thumb Code     2  heapauxi.o(.text)
    __rt_heap_expand$2region                 0x08000715   Thumb Code     2  heapauxi.o(.text)
    __I$use$semihosting                      0x08000717   Thumb Code     0  use_no_semi.o(.text)
    __use_no_semihosting_swi                 0x08000717   Thumb Code     2  use_no_semi.o(.text)
    __aeabi_uldivmod                         0x08000719   Thumb Code     0  lludivv7m.o(.text)
    _ll_udiv                                 0x08000719   Thumb Code   238  lludivv7m.o(.text)
    _printf_int_common                       0x08000807   Thumb Code   178  _printf_intcommon.o(.text)
    __lib_sel_fp_printf                      0x080008b9   Thumb Code     2  _printf_fp_dec.o(.text)
    _printf_fp_dec_real                      0x08000a6b   Thumb Code   620  _printf_fp_dec.o(.text)
    _printf_char_common                      0x08000ce3   Thumb Code    32  _printf_char_common.o(.text)
    _sputc                                   0x08000d09   Thumb Code    10  _sputc.o(.text)
    _printf_cs_common                        0x08000d13   Thumb Code    20  _printf_char.o(.text)
    _printf_char                             0x08000d27   Thumb Code    16  _printf_char.o(.text)
    _printf_string                           0x08000d37   Thumb Code     8  _printf_char.o(.text)
    _printf_char_file                        0x08000d41   Thumb Code    32  _printf_char_file.o(.text)
    __aeabi_memcpy4                          0x08000d65   Thumb Code     0  rt_memcpy_w.o(.text)
    __aeabi_memcpy8                          0x08000d65   Thumb Code     0  rt_memcpy_w.o(.text)
    __rt_memcpy_w                            0x08000d65   Thumb Code   100  rt_memcpy_w.o(.text)
    _memcpy_lastbytes_aligned                0x08000dad   Thumb Code     0  rt_memcpy_w.o(.text)
    __rt_locale                              0x08000dc9   Thumb Code     8  rt_locale_intlibspace.o(.text)
    _ll_udiv10                               0x08000dd1   Thumb Code   138  lludiv10.o(.text)
    _printf_fp_infnan                        0x08000e5d   Thumb Code   112  _printf_fp_infnan.o(.text)
    _btod_etento                             0x08000edd   Thumb Code   224  bigflt0.o(.text)
    ferror                                   0x08000fc1   Thumb Code     8  ferror.o(.text)
    __user_libspace                          0x08000fc9   Thumb Code     8  libspace.o(.text)
    __user_perproc_libspace                  0x08000fc9   Thumb Code     0  libspace.o(.text)
    __user_perthread_libspace                0x08000fc9   Thumb Code     0  libspace.o(.text)
    __user_setup_stackheap                   0x08000fd1   Thumb Code    74  sys_stackheap_outer.o(.text)
    exit                                     0x0800101b   Thumb Code    18  exit.o(.text)
    _btod_d2e                                0x0800102d   Thumb Code    62  btod.o(CL$$btod_d2e)
    _d2e_denorm_low                          0x0800106b   Thumb Code    70  btod.o(CL$$btod_d2e_denorm_low)
    _d2e_norm_op1                            0x080010b1   Thumb Code    96  btod.o(CL$$btod_d2e_norm_op1)
    __btod_div_common                        0x08001111   Thumb Code   696  btod.o(CL$$btod_div_common)
    _e2e                                     0x08001449   Thumb Code   220  btod.o(CL$$btod_e2e)
    _btod_ediv                               0x08001525   Thumb Code    42  btod.o(CL$$btod_ediv)
    _btod_emul                               0x0800154f   Thumb Code    42  btod.o(CL$$btod_emul)
    __btod_mult_common                       0x08001579   Thumb Code   580  btod.o(CL$$btod_mult_common)
    ADC_Cmd                                  0x080017bd   Thumb Code    20  stm32f10x_adc.o(i.ADC_Cmd)
    ADC_DMACmd                               0x080017d1   Thumb Code    20  stm32f10x_adc.o(i.ADC_DMACmd)
    ADC_GetCalibrationStatus                 0x080017e5   Thumb Code    14  stm32f10x_adc.o(i.ADC_GetCalibrationStatus)
    ADC_GetResetCalibrationStatus            0x080017f3   Thumb Code    14  stm32f10x_adc.o(i.ADC_GetResetCalibrationStatus)
    ADC_Init                                 0x08001801   Thumb Code    62  stm32f10x_adc.o(i.ADC_Init)
    ADC_RegularChannelConfig                 0x08001849   Thumb Code   116  stm32f10x_adc.o(i.ADC_RegularChannelConfig)
    ADC_ResetCalibration                     0x080018bd   Thumb Code    10  stm32f10x_adc.o(i.ADC_ResetCalibration)
    ADC_SoftwareStartConvCmd                 0x080018c7   Thumb Code    20  stm32f10x_adc.o(i.ADC_SoftwareStartConvCmd)
    ADC_StartCalibration                     0x080018db   Thumb Code    10  stm32f10x_adc.o(i.ADC_StartCalibration)
    ADCx_Init                                0x080018e5   Thumb Code   248  bsp_adc.o(i.ADCx_Init)
    BEEP_Init                                0x080019ed   Thumb Code    50  beep.o(i.BEEP_Init)
    BusFault_Handler                         0x08001a25   Thumb Code     2  stm32f10x_it.o(i.BusFault_Handler)
    CmdError                                 0x08001a27   Thumb Code    42  sdio_sdcard.o(i.CmdError)
    CmdResp1Error                            0x08001a51   Thumb Code    74  sdio_sdcard.o(i.CmdResp1Error)
    CmdResp2Error                            0x08001aa1   Thumb Code    66  sdio_sdcard.o(i.CmdResp2Error)
    CmdResp3Error                            0x08001ae9   Thumb Code    42  sdio_sdcard.o(i.CmdResp3Error)
    CmdResp6Error                            0x08001b19   Thumb Code   114  sdio_sdcard.o(i.CmdResp6Error)
    CmdResp7Error                            0x08001b91   Thumb Code    54  sdio_sdcard.o(i.CmdResp7Error)
    DMA_Cmd                                  0x08001bcd   Thumb Code    22  stm32f10x_dma.o(i.DMA_Cmd)
    DMA_DeInit                               0x08001be5   Thumb Code   218  stm32f10x_dma.o(i.DMA_DeInit)
    DMA_Init                                 0x08001cc9   Thumb Code    58  stm32f10x_dma.o(i.DMA_Init)
    DS18B20_Get_Temp                         0x08001d05   Thumb Code   100  ds18b20.o(i.DS18B20_Get_Temp)
    DS18B20_Read_Byte                        0x08001e0d   Thumb Code    84  ds18b20.o(i.DS18B20_Read_Byte)
    DS18B20_Write_Byte                       0x08001e99   Thumb Code    90  ds18b20.o(i.DS18B20_Write_Byte)
    DebugMon_Handler                         0x08001ef9   Thumb Code     2  stm32f10x_it.o(i.DebugMon_Handler)
    Display_Data                             0x08001efd   Thumb Code    58  data_processing.o(i.Display_Data)
    EC_Value_Conversion                      0x08001f3d   Thumb Code   320  data_processing.o(i.EC_Value_Conversion)
    FSMC_NORSRAMCmd                          0x080020bd   Thumb Code    26  stm32f10x_fsmc.o(i.FSMC_NORSRAMCmd)
    FSMC_NORSRAMInit                         0x080020dd   Thumb Code   200  stm32f10x_fsmc.o(i.FSMC_NORSRAMInit)
    FindSCR                                  0x080021a5   Thumb Code   300  sdio_sdcard.o(i.FindSCR)
    GPIO_Init                                0x080022dd   Thumb Code   156  stm32f10x_gpio.o(i.GPIO_Init)
    GPIO_PinRemapConfig                      0x08002379   Thumb Code    82  stm32f10x_gpio.o(i.GPIO_PinRemapConfig)
    GPIO_ReadInputDataBit                    0x080023d1   Thumb Code    14  stm32f10x_gpio.o(i.GPIO_ReadInputDataBit)
    GPIO_ResetBits                           0x080023df   Thumb Code     4  stm32f10x_gpio.o(i.GPIO_ResetBits)
    GPIO_SetBits                             0x080023e3   Thumb Code     4  stm32f10x_gpio.o(i.GPIO_SetBits)
    GPIO_WriteBit                            0x080023e7   Thumb Code    10  stm32f10x_gpio.o(i.GPIO_WriteBit)
    Get_HzMat                                0x080023f1   Thumb Code   134  text.o(i.Get_HzMat)
    HardFault_Handler                        0x0800247d   Thumb Code     2  stm32f10x_it.o(i.HardFault_Handler)
    INTX_DISABLE                             0x0800247f   Thumb Code     4  sys.o(i.INTX_DISABLE)
    INTX_ENABLE                              0x08002483   Thumb Code     4  sys.o(i.INTX_ENABLE)
    IsCardProgramming                        0x08002489   Thumb Code   126  sdio_sdcard.o(i.IsCardProgramming)
    KEY_Init                                 0x08002515   Thumb Code    52  key.o(i.KEY_Init)
    KEY_Scan                                 0x08002551   Thumb Code   190  key.o(i.KEY_Scan)
    LCD_Clear                                0x0800261d   Thumb Code    40  lcd.o(i.LCD_Clear)
    LCD_Display_Dir                          0x0800264d   Thumb Code   180  lcd.o(i.LCD_Display_Dir)
    LCD_Fast_DrawPoint                       0x08002705   Thumb Code   164  lcd.o(i.LCD_Fast_DrawPoint)
    LCD_Fill                                 0x080027b1   Thumb Code    66  lcd.o(i.LCD_Fill)
    LCD_Init                                 0x080027f9   Thumb Code  7746  lcd.o(i.LCD_Init)
    LCD_RD_DATA                              0x08004641   Thumb Code    16  lcd.o(i.LCD_RD_DATA)
    LCD_SSD_BackLightSet                     0x08004655   Thumb Code    50  lcd.o(i.LCD_SSD_BackLightSet)
    LCD_Scan_Dir                             0x08004691   Thumb Code   314  lcd.o(i.LCD_Scan_Dir)
    LCD_SetCursor                            0x080047d5   Thumb Code   172  lcd.o(i.LCD_SetCursor)
    LCD_ShowChar                             0x08004889   Thumb Code   182  lcd.o(i.LCD_ShowChar)
    LCD_ShowString                           0x08004955   Thumb Code    84  lcd.o(i.LCD_ShowString)
    LCD_WriteRAM_Prepare                     0x080049a9   Thumb Code    10  lcd.o(i.LCD_WriteRAM_Prepare)
    LCD_WriteReg                             0x080049bd   Thumb Code    10  lcd.o(i.LCD_WriteReg)
    LED_Init                                 0x080049cd   Thumb Code    70  led.o(i.LED_Init)
    MYDMA_SRAMLCD_Init                       0x08004a1d   Thumb Code    70  dma.o(i.MYDMA_SRAMLCD_Init)
    MemManage_Handler                        0x08004a6d   Thumb Code     2  stm32f10x_it.o(i.MemManage_Handler)
    NMI_Handler                              0x08004a6f   Thumb Code     2  stm32f10x_it.o(i.NMI_Handler)
    NVIC_Init                                0x08004a71   Thumb Code    94  misc.o(i.NVIC_Init)
    NVIC_PriorityGroupConfig                 0x08004ad5   Thumb Code    10  misc.o(i.NVIC_PriorityGroupConfig)
    OLED_Clear                               0x08004ae9   Thumb Code    38  oled.o(i.OLED_Clear)
    OLED_I2C_Init                            0x08004b11   Thumb Code    74  oled.o(i.OLED_I2C_Init)
    OLED_I2C_SendByte                        0x08004b61   Thumb Code    78  oled.o(i.OLED_I2C_SendByte)
    OLED_I2C_Start                           0x08004bb5   Thumb Code    48  oled.o(i.OLED_I2C_Start)
    OLED_I2C_Stop                            0x08004be9   Thumb Code    38  oled.o(i.OLED_I2C_Stop)
    OLED_Init                                0x08004c15   Thumb Code   172  oled.o(i.OLED_Init)
    OLED_SetCursor                           0x08004cc1   Thumb Code    34  oled.o(i.OLED_SetCursor)
    OLED_ShowChar                            0x08004ce5   Thumb Code    98  oled.o(i.OLED_ShowChar)
    OLED_ShowString                          0x08004d4d   Thumb Code    38  oled.o(i.OLED_ShowString)
    OLED_WriteCommand                        0x08004d73   Thumb Code    34  oled.o(i.OLED_WriteCommand)
    OLED_WriteData                           0x08004d95   Thumb Code    34  oled.o(i.OLED_WriteData)
    OV2640_Auto_Exposure                     0x08004db9   Thumb Code    34  ov2640.o(i.OV2640_Auto_Exposure)
    OV2640_Brightness                        0x08004de1   Thumb Code    58  ov2640.o(i.OV2640_Brightness)
    OV2640_Color_Bar                         0x08004e1b   Thumb Code    38  ov2640.o(i.OV2640_Color_Bar)
    OV2640_Color_Saturation                  0x08004e41   Thumb Code    64  ov2640.o(i.OV2640_Color_Saturation)
    OV2640_Contrast                          0x08004e81   Thumb Code   112  ov2640.o(i.OV2640_Contrast)
    OV2640_ImageSize_Set                     0x08004ef1   Thumb Code    78  ov2640.o(i.OV2640_ImageSize_Set)
    OV2640_ImageWin_Set                      0x08004f3f   Thumb Code   136  ov2640.o(i.OV2640_ImageWin_Set)
    OV2640_Init                              0x08004fc9   Thumb Code   348  ov2640.o(i.OV2640_Init)
    OV2640_JPEG_Mode                         0x0800515d   Thumb Code    58  ov2640.o(i.OV2640_JPEG_Mode)
    OV2640_Light_Mode                        0x0800519d   Thumb Code   100  ov2640.o(i.OV2640_Light_Mode)
    OV2640_OutSize_Set                       0x08005201   Thumb Code    84  ov2640.o(i.OV2640_OutSize_Set)
    OV2640_RGB565_Mode                       0x08005255   Thumb Code    30  ov2640.o(i.OV2640_RGB565_Mode)
    OV2640_Special_Effects                   0x08005279   Thumb Code   112  ov2640.o(i.OV2640_Special_Effects)
    OV2640_Window_Set                        0x080052e9   Thumb Code   124  ov2640.o(i.OV2640_Window_Set)
    PH_Value_Conversion                      0x08005365   Thumb Code   166  data_processing.o(i.PH_Value_Conversion)
    PendSV_Handler                           0x08005435   Thumb Code     2  stm32f10x_it.o(i.PendSV_Handler)
    RCC_ADCCLKConfig                         0x08005439   Thumb Code    14  stm32f10x_rcc.o(i.RCC_ADCCLKConfig)
    RCC_AHBPeriphClockCmd                    0x0800544d   Thumb Code    18  stm32f10x_rcc.o(i.RCC_AHBPeriphClockCmd)
    RCC_APB1PeriphClockCmd                   0x08005465   Thumb Code    18  stm32f10x_rcc.o(i.RCC_APB1PeriphClockCmd)
    RCC_APB2PeriphClockCmd                   0x0800547d   Thumb Code    18  stm32f10x_rcc.o(i.RCC_APB2PeriphClockCmd)
    RCC_GetClocksFreq                        0x08005495   Thumb Code   132  stm32f10x_rcc.o(i.RCC_GetClocksFreq)
    SCCB_Init                                0x08005529   Thumb Code    98  sccb.o(i.SCCB_Init)
    SCCB_No_Ack                              0x08005595   Thumb Code    58  sccb.o(i.SCCB_No_Ack)
    SCCB_RD_Byte                             0x080055d9   Thumb Code   102  sccb.o(i.SCCB_RD_Byte)
    SCCB_RD_Reg                              0x0800564d   Thumb Code    76  sccb.o(i.SCCB_RD_Reg)
    SCCB_Start                               0x08005699   Thumb Code    44  sccb.o(i.SCCB_Start)
    SCCB_Stop                                0x080056cd   Thumb Code    46  sccb.o(i.SCCB_Stop)
    SCCB_WR_Byte                             0x08005705   Thumb Code   130  sccb.o(i.SCCB_WR_Byte)
    SCCB_WR_Reg                              0x08005795   Thumb Code    62  sccb.o(i.SCCB_WR_Reg)
    SDEnWideBus                              0x080057d5   Thumb Code   126  sdio_sdcard.o(i.SDEnWideBus)
    SDIO_ClearFlag                           0x08005861   Thumb Code     6  stm32f10x_sdio.o(i.SDIO_ClearFlag)
    SDIO_ClockCmd                            0x0800586d   Thumb Code     8  stm32f10x_sdio.o(i.SDIO_ClockCmd)
    SDIO_Clock_Set                           0x08005879   Thumb Code    14  sdio_sdcard.o(i.SDIO_Clock_Set)
    SDIO_DMACmd                              0x0800588d   Thumb Code     6  stm32f10x_sdio.o(i.SDIO_DMACmd)
    SDIO_DataConfig                          0x08005899   Thumb Code    38  stm32f10x_sdio.o(i.SDIO_DataConfig)
    SDIO_DeInit                              0x080058c5   Thumb Code    26  stm32f10x_sdio.o(i.SDIO_DeInit)
    SDIO_GetFlagStatus                       0x080058e9   Thumb Code    16  stm32f10x_sdio.o(i.SDIO_GetFlagStatus)
    SDIO_GetPowerState                       0x080058fd   Thumb Code    10  stm32f10x_sdio.o(i.SDIO_GetPowerState)
    SDIO_IRQHandler                          0x0800590d   Thumb Code     4  sdio_sdcard.o(i.SDIO_IRQHandler)
    SDIO_Init                                0x08005911   Thumb Code    40  stm32f10x_sdio.o(i.SDIO_Init)
    SDIO_ReadData                            0x0800593d   Thumb Code     8  stm32f10x_sdio.o(i.SDIO_ReadData)
    SDIO_SendCommand                         0x08005949   Thumb Code    34  stm32f10x_sdio.o(i.SDIO_SendCommand)
    SDIO_SetPowerState                       0x08005971   Thumb Code    18  stm32f10x_sdio.o(i.SDIO_SetPowerState)
    SDIO_WriteData                           0x08005989   Thumb Code     8  stm32f10x_sdio.o(i.SDIO_WriteData)
    SD_DMA_Config                            0x08005995   Thumb Code    88  sdio_sdcard.o(i.SD_DMA_Config)
    SD_EnableWideBusOperation                0x080059f5   Thumb Code    68  sdio_sdcard.o(i.SD_EnableWideBusOperation)
    SD_GetCardInfo                           0x08005a41   Thumb Code   526  sdio_sdcard.o(i.SD_GetCardInfo)
    SD_Init                                  0x08005c59   Thumb Code   206  sdio_sdcard.o(i.SD_Init)
    SD_InitializeCards                       0x08005d39   Thumb Code   262  sdio_sdcard.o(i.SD_InitializeCards)
    SD_PowerON                               0x08005e4d   Thumb Code   390  sdio_sdcard.o(i.SD_PowerON)
    SD_ProcessIRQSrc                         0x08005fe9   Thumb Code   220  sdio_sdcard.o(i.SD_ProcessIRQSrc)
    SD_ReadBlock                             0x080060d1   Thumb Code   482  sdio_sdcard.o(i.SD_ReadBlock)
    SD_ReadDisk                              0x080062c9   Thumb Code   114  sdio_sdcard.o(i.SD_ReadDisk)
    SD_ReadMultiBlocks                       0x08006341   Thumb Code   586  sdio_sdcard.o(i.SD_ReadMultiBlocks)
    SD_SelectDeselect                        0x080065a1   Thumb Code    40  sdio_sdcard.o(i.SD_SelectDeselect)
    SD_SetDeviceMode                         0x080065cd   Thumb Code    20  sdio_sdcard.o(i.SD_SetDeviceMode)
    SD_WriteBlock                            0x080065e5   Thumb Code   698  sdio_sdcard.o(i.SD_WriteBlock)
    SD_WriteDisk                             0x080068b1   Thumb Code   108  sdio_sdcard.o(i.SD_WriteDisk)
    SD_WriteMultiBlocks                      0x08006921   Thumb Code   722  sdio_sdcard.o(i.SD_WriteMultiBlocks)
    SPI2_Init                                0x08006c05   Thumb Code   138  spi.o(i.SPI2_Init)
    SPI2_ReadWriteByte                       0x08006c99   Thumb Code    76  spi.o(i.SPI2_ReadWriteByte)
    SPI2_SetSpeed                            0x08006ce9   Thumb Code    24  spi.o(i.SPI2_SetSpeed)
    SPI_Cmd                                  0x08006d05   Thumb Code    20  stm32f10x_spi.o(i.SPI_Cmd)
    SPI_I2S_GetFlagStatus                    0x08006d19   Thumb Code    14  stm32f10x_spi.o(i.SPI_I2S_GetFlagStatus)
    SPI_I2S_ReceiveData                      0x08006d27   Thumb Code     4  stm32f10x_spi.o(i.SPI_I2S_ReceiveData)
    SPI_I2S_SendData                         0x08006d2b   Thumb Code     4  stm32f10x_spi.o(i.SPI_I2S_SendData)
    SPI_Init                                 0x08006d2f   Thumb Code    56  stm32f10x_spi.o(i.SPI_Init)
    SVC_Handler                              0x08006d67   Thumb Code     2  stm32f10x_it.o(i.SVC_Handler)
    Show_Font                                0x08006e11   Thumb Code   154  text.o(i.Show_Font)
    Show_Str                                 0x08006eb5   Thumb Code   174  text.o(i.Show_Str)
    SysTick_CLKSourceConfig                  0x08006f63   Thumb Code    24  misc.o(i.SysTick_CLKSourceConfig)
    SysTick_Handler                          0x08006f7b   Thumb Code     2  stm32f10x_it.o(i.SysTick_Handler)
    SystemInit                               0x08006f7d   Thumb Code    64  system_stm32f10x.o(i.SystemInit)
    TDS_Value_Conversion                     0x08006fcd   Thumb Code   354  data_processing.o(i.TDS_Value_Conversion)
    TEMP_Value_Conversion                    0x0800716d   Thumb Code   126  data_processing.o(i.TEMP_Value_Conversion)
    TIM4_IRQHandler                          0x080071f9   Thumb Code    50  usmart.o(i.TIM4_IRQHandler)
    TIM6_IRQHandler                          0x08007235   Thumb Code    40  timer.o(i.TIM6_IRQHandler)
    TIM_ClearFlag                            0x08007275   Thumb Code     6  stm32f10x_tim.o(i.TIM_ClearFlag)
    TIM_ClearITPendingBit                    0x0800727b   Thumb Code     6  stm32f10x_tim.o(i.TIM_ClearITPendingBit)
    TIM_Cmd                                  0x08007281   Thumb Code    20  stm32f10x_tim.o(i.TIM_Cmd)
    TIM_GetCounter                           0x08007295   Thumb Code     4  stm32f10x_tim.o(i.TIM_GetCounter)
    TIM_GetFlagStatus                        0x08007299   Thumb Code    14  stm32f10x_tim.o(i.TIM_GetFlagStatus)
    TIM_GetITStatus                          0x080072a7   Thumb Code    24  stm32f10x_tim.o(i.TIM_GetITStatus)
    TIM_ITConfig                             0x080072bf   Thumb Code    16  stm32f10x_tim.o(i.TIM_ITConfig)
    TIM_SetAutoreload                        0x080072cf   Thumb Code     4  stm32f10x_tim.o(i.TIM_SetAutoreload)
    TIM_SetCounter                           0x080072d3   Thumb Code     4  stm32f10x_tim.o(i.TIM_SetCounter)
    TIM_TimeBaseInit                         0x080072d9   Thumb Code   114  stm32f10x_tim.o(i.TIM_TimeBaseInit)
    Timer4_Init                              0x08007375   Thumb Code    90  usmart.o(i.Timer4_Init)
    USART1_IRQHandler                        0x080073d5   Thumb Code    88  usart.o(i.USART1_IRQHandler)
    USART_Cmd                                0x08007439   Thumb Code    20  stm32f10x_usart.o(i.USART_Cmd)
    USART_GetFlagStatus                      0x0800744d   Thumb Code    14  stm32f10x_usart.o(i.USART_GetFlagStatus)
    USART_GetITStatus                        0x0800745b   Thumb Code    62  stm32f10x_usart.o(i.USART_GetITStatus)
    USART_ITConfig                           0x08007499   Thumb Code    48  stm32f10x_usart.o(i.USART_ITConfig)
    USART_Init                               0x080074c9   Thumb Code   166  stm32f10x_usart.o(i.USART_Init)
    USART_ReceiveData                        0x08007575   Thumb Code     8  stm32f10x_usart.o(i.USART_ReceiveData)
    USART_SendData                           0x0800757d   Thumb Code     8  stm32f10x_usart.o(i.USART_SendData)
    UsageFault_Handler                       0x08007585   Thumb Code     2  stm32f10x_it.o(i.UsageFault_Handler)
    W25QXX_Erase_Sector                      0x08007589   Thumb Code    74  w25qxx.o(i.W25QXX_Erase_Sector)
    W25QXX_Init                              0x080075e1   Thumb Code    76  w25qxx.o(i.W25QXX_Init)
    W25QXX_Read                              0x08007639   Thumb Code    76  w25qxx.o(i.W25QXX_Read)
    W25QXX_ReadID                            0x08007689   Thumb Code    62  w25qxx.o(i.W25QXX_ReadID)
    W25QXX_ReadSR                            0x080076cd   Thumb Code    32  w25qxx.o(i.W25QXX_ReadSR)
    W25QXX_Wait_Busy                         0x080076f1   Thumb Code    12  w25qxx.o(i.W25QXX_Wait_Busy)
    W25QXX_Write                             0x080076fd   Thumb Code   172  w25qxx.o(i.W25QXX_Write)
    W25QXX_Write_Enable                      0x080077a9   Thumb Code    26  w25qxx.o(i.W25QXX_Write_Enable)
    W25QXX_Write_NoCheck                     0x080077c9   Thumb Code    62  w25qxx.o(i.W25QXX_Write_NoCheck)
    W25QXX_Write_Page                        0x08007809   Thumb Code    82  w25qxx.o(i.W25QXX_Write_Page)
    __ARM_fpclassify                         0x08007861   Thumb Code    40  fpclassify.o(i.__ARM_fpclassify)
    _is_digit                                0x08007889   Thumb Code    14  __printf_wp.o(i._is_digit)
    _sys_exit                                0x08007897   Thumb Code     2  usart.o(i._sys_exit)
    camera_new_pathname                      0x08007899   Thumb Code    58  main.o(i.camera_new_pathname)
    clust2sect                               0x08007991   Thumb Code    24  ff.o(i.clust2sect)
    convert_from_bytes_to_power_of_two       0x080079a9   Thumb Code    18  sdio_sdcard.o(i.convert_from_bytes_to_power_of_two)
    delay1_ms                                0x08007c71   Thumb Code    38  delay1.o(i.delay1_ms)
    delay_init                               0x08007c99   Thumb Code    46  delay.o(i.delay_init)
    delay_ms                                 0x08007cd5   Thumb Code    46  delay.o(i.delay_ms)
    delay_us                                 0x08007d09   Thumb Code    46  delay.o(i.delay_us)
    dir_sdi                                  0x080080f9   Thumb Code   124  ff.o(i.dir_sdi)
    disk_initialize                          0x08008175   Thumb Code    36  diskio.o(i.disk_initialize)
    disk_ioctl                               0x0800819d   Thumb Code   106  diskio.o(i.disk_ioctl)
    disk_read                                0x08008211   Thumb Code    76  diskio.o(i.disk_read)
    disk_status                              0x0800825d   Thumb Code     4  diskio.o(i.disk_status)
    disk_write                               0x08008261   Thumb Code    76  diskio.o(i.disk_write)
    exfuns_init                              0x080082ad   Thumb Code    94  exfuns.o(i.exfuns_init)
    f_close                                  0x08008311   Thumb Code    28  ff.o(i.f_close)
    f_mkdir                                  0x0800832d   Thumb Code   384  ff.o(i.f_mkdir)
    f_mount                                  0x080084ad   Thumb Code    72  ff.o(i.f_mount)
    f_open                                   0x080084f9   Thumb Code   344  ff.o(i.f_open)
    f_sync                                   0x08008651   Thumb Code   152  ff.o(i.f_sync)
    f_write                                  0x080086e9   Thumb Code   384  ff.o(i.f_write)
    ff_convert                               0x08008869   Thumb Code   106  mycc936.o(i.ff_convert)
    ff_memalloc                              0x080088d9   Thumb Code     8  diskio.o(i.ff_memalloc)
    ff_memfree                               0x080088e1   Thumb Code     8  diskio.o(i.ff_memfree)
    ff_wtoupper                              0x080088e9   Thumb Code    28  mycc936.o(i.ff_wtoupper)
    font_init                                0x08008bad   Thumb Code    58  fontupd.o(i.font_init)
    fputc                                    0x08008bed   Thumb Code    18  usart.o(i.fputc)
    get_fat                                  0x08008c91   Thumb Code   190  ff.o(i.get_fat)
    get_fattime                              0x08008d4f   Thumb Code     4  diskio.o(i.get_fattime)
    main                                     0x08008da1   Thumb Code   868  main.o(i.main)
    my_mem_free                              0x0800929d   Thumb Code    78  malloc.o(i.my_mem_free)
    my_mem_init                              0x080092f5   Thumb Code    50  malloc.o(i.my_mem_init)
    my_mem_malloc                            0x08009331   Thumb Code   130  malloc.o(i.my_mem_malloc)
    my_mem_perused                           0x080093bd   Thumb Code    48  malloc.o(i.my_mem_perused)
    myfree                                   0x080093f5   Thumb Code    20  malloc.o(i.myfree)
    mymalloc                                 0x0800940d   Thumb Code    28  malloc.o(i.mymalloc)
    mymemset                                 0x0800942d   Thumb Code    12  malloc.o(i.mymemset)
    ov2640_jpg_photo                         0x08009439   Thumb Code   258  main.o(i.ov2640_jpg_photo)
    ov2640_sendphoto                         0x08009565   Thumb Code   420  main.o(i.ov2640_sendphoto)
    ov2640_speed_ctrl                        0x0800976d   Thumb Code    68  main.o(i.ov2640_speed_ctrl)
    printf_Data                              0x080097b5   Thumb Code    92  data_processing.o(i.printf_Data)
    put_fat                                  0x0800984d   Thumb Code   244  ff.o(i.put_fat)
    read_addr                                0x08009941   Thumb Code     4  usmart.o(i.read_addr)
    uart_init                                0x08009ad5   Thumb Code   152  usart.o(i.uart_init)
    usmart_cmd_rec                           0x08009b75   Thumb Code   144  usmart.o(i.usmart_cmd_rec)
    usmart_exe                               0x08009c09   Thumb Code   510  usmart.o(i.usmart_exe)
    usmart_get_aparm                         0x08009e69   Thumb Code   156  usmart_str.o(i.usmart_get_aparm)
    usmart_get_cmdname                       0x08009f05   Thumb Code    46  usmart_str.o(i.usmart_get_cmdname)
    usmart_get_fname                         0x08009f35   Thumb Code   352  usmart_str.o(i.usmart_get_fname)
    usmart_get_fparam                        0x0800a09d   Thumb Code   202  usmart_str.o(i.usmart_get_fparam)
    usmart_get_parmpos                       0x0800a16d   Thumb Code    30  usmart_str.o(i.usmart_get_parmpos)
    usmart_get_runtime                       0x0800a191   Thumb Code    48  usmart.o(i.usmart_get_runtime)
    usmart_init                              0x0800a1c9   Thumb Code    36  usmart.o(i.usmart_init)
    usmart_pow                               0x0800a1f1   Thumb Code    16  usmart_str.o(i.usmart_pow)
    usmart_reset_runtime                     0x0800a201   Thumb Code    40  usmart.o(i.usmart_reset_runtime)
    usmart_scan                              0x0800a231   Thumb Code    94  usmart.o(i.usmart_scan)
    usmart_search_nextc                      0x0800a2d5   Thumb Code    16  usmart_str.o(i.usmart_search_nextc)
    usmart_str2num                           0x0800a2e5   Thumb Code   160  usmart_str.o(i.usmart_str2num)
    usmart_strcmp                            0x0800a385   Thumb Code    24  usmart_str.o(i.usmart_strcmp)
    usmart_strcopy                           0x0800a39d   Thumb Code    18  usmart_str.o(i.usmart_strcopy)
    usmart_strlen                            0x0800a3af   Thumb Code    18  usmart_str.o(i.usmart_strlen)
    usmart_sys_cmd_exe                       0x0800a3c1   Thumb Code  1442  usmart.o(i.usmart_sys_cmd_exe)
    write_addr                               0x0800aa57   Thumb Code     4  usmart.o(i.write_addr)
    _get_lc_numeric                          0x0800aa5d   Thumb Code    44  lc_numeric_c.o(locale$$code)
    __aeabi_d2f                              0x0800aa89   Thumb Code     0  d2f.o(x$fpl$d2f)
    _d2f                                     0x0800aa89   Thumb Code    98  d2f.o(x$fpl$d2f)
    __aeabi_dadd                             0x0800aaed   Thumb Code     0  daddsub_clz.o(x$fpl$dadd)
    _dadd                                    0x0800aaed   Thumb Code   332  daddsub_clz.o(x$fpl$dadd)
    __fpl_dcheck_NaN1                        0x0800ac3d   Thumb Code    10  dcheck1.o(x$fpl$dcheck1)
    __aeabi_ddiv                             0x0800ac4d   Thumb Code     0  ddiv.o(x$fpl$ddiv)
    _ddiv                                    0x0800ac4d   Thumb Code   552  ddiv.o(x$fpl$ddiv)
    __aeabi_d2uiz                            0x0800aefd   Thumb Code     0  dfixu.o(x$fpl$dfixu)
    _dfixu                                   0x0800aefd   Thumb Code    90  dfixu.o(x$fpl$dfixu)
    __aeabi_i2d                              0x0800af57   Thumb Code     0  dflt_clz.o(x$fpl$dflt)
    _dflt                                    0x0800af57   Thumb Code    46  dflt_clz.o(x$fpl$dflt)
    __aeabi_ui2d                             0x0800af85   Thumb Code     0  dflt_clz.o(x$fpl$dfltu)
    _dfltu                                   0x0800af85   Thumb Code    38  dflt_clz.o(x$fpl$dfltu)
    __aeabi_dmul                             0x0800afad   Thumb Code     0  dmul.o(x$fpl$dmul)
    _dmul                                    0x0800afad   Thumb Code   332  dmul.o(x$fpl$dmul)
    __fpl_dnaninf                            0x0800b101   Thumb Code   156  dnaninf.o(x$fpl$dnaninf)
    __fpl_dretinf                            0x0800b19d   Thumb Code    12  dretinf.o(x$fpl$dretinf)
    __aeabi_dsub                             0x0800b1a9   Thumb Code     0  daddsub_clz.o(x$fpl$dsub)
    _dsub                                    0x0800b1a9   Thumb Code   464  daddsub_clz.o(x$fpl$dsub)
    __aeabi_f2d                              0x0800b37d   Thumb Code     0  f2d.o(x$fpl$f2d)
    _f2d                                     0x0800b37d   Thumb Code    86  f2d.o(x$fpl$f2d)
    __fpl_fcheck_NaN1                        0x0800b3d5   Thumb Code     6  fcheck1.o(x$fpl$fcheck1)
    __aeabi_fdiv                             0x0800b3e1   Thumb Code     0  fdiv.o(x$fpl$fdiv)
    _fdiv                                    0x0800b3e1   Thumb Code   384  fdiv.o(x$fpl$fdiv)
    __aeabi_f2iz                             0x0800b565   Thumb Code     0  ffix.o(x$fpl$ffix)
    _ffix                                    0x0800b565   Thumb Code    54  ffix.o(x$fpl$ffix)
    __aeabi_ui2f                             0x0800b59d   Thumb Code     0  fflt_clz.o(x$fpl$ffltu)
    _ffltu                                   0x0800b59d   Thumb Code    38  fflt_clz.o(x$fpl$ffltu)
    __aeabi_fmul                             0x0800b5c5   Thumb Code     0  fmul.o(x$fpl$fmul)
    _fmul                                    0x0800b5c5   Thumb Code   258  fmul.o(x$fpl$fmul)
    __fpl_fnaninf                            0x0800b6c7   Thumb Code   140  fnaninf.o(x$fpl$fnaninf)
    __fpl_fretinf                            0x0800b753   Thumb Code    10  fretinf.o(x$fpl$fretinf)
    _printf_fp_dec                           0x0800b75d   Thumb Code     4  printf1.o(x$fpl$printf1)
    __fpl_return_NaN                         0x0800b761   Thumb Code   100  retnan.o(x$fpl$retnan)
    __ARM_scalbn                             0x0800b7c5   Thumb Code    92  scalbn.o(x$fpl$scalbn)
    __ARM_scalbnf                            0x0800b821   Thumb Code    76  scalbnf.o(x$fpl$scalbnf)
    __fpl_cmpreturn                          0x0800b86d   Thumb Code    48  trapv.o(x$fpl$trapveneer)
    __I$use$fp                               0x0800b89c   Number         0  usenofp.o(x$fpl$usenofp)
    jpeg_img_size_tbl                        0x0800b89c   Data          20  main.o(.constdata)
    asc2_1206                                0x0800b8b0   Data        1140  lcd.o(.constdata)
    asc2_1608                                0x0800bd24   Data        1520  lcd.o(.constdata)
    asc2_2412                                0x0800c314   Data        3420  lcd.o(.constdata)
    ov2640_uxga_init_reg_tbl                 0x0800d070   Data         356  ov2640.o(.constdata)
    ov2640_yuv422_reg_tbl                    0x0800d1d4   Data          16  ov2640.o(.constdata)
    ov2640_jpeg_reg_tbl                      0x0800d1e4   Data          14  ov2640.o(.constdata)
    ov2640_rgb565_reg_tbl                    0x0800d1f2   Data          28  ov2640.o(.constdata)
    OLED_F8x16                               0x0800d236   Data        1520  oled.o(.constdata)
    memtblsize                               0x0800d828   Data           8  malloc.o(.constdata)
    memblksize                               0x0800d830   Data           8  malloc.o(.constdata)
    memsize                                  0x0800d838   Data           8  malloc.o(.constdata)
    Region$$Table$$Base                      0x0800dfe8   Number         0  anon$$obj.o(Region$$Table)
    Region$$Table$$Limit                     0x0800e008   Number         0  anon$$obj.o(Region$$Table)
    ov2640_framebuf                          0x20000000   Data           4  main.o(.data)
    JPEG_SIZE_TBL                            0x20000004   Data          36  main.o(.data)
    SystemCoreClock                          0x20000028   Data           4  system_stm32f10x.o(.data)
    AHBPrescTable                            0x2000002c   Data          16  system_stm32f10x.o(.data)
    POINT_COLOR                              0x2000003e   Data           2  lcd.o(.data)
    BACK_COLOR                               0x20000040   Data           2  lcd.o(.data)
    W25QXX_TYPE                              0x20000042   Data           2  w25qxx.o(.data)
    TransferError                            0x20000047   Data           1  sdio_sdcard.o(.data)
    TransferEnd                              0x20000048   Data           1  sdio_sdcard.o(.data)
    tempbuff                                 0x20000050   Data           4  sdio_sdcard.o(.data)
    ov_frame                                 0x20000054   Data           1  timer.o(.data)
    USART_RX_STA                             0x2000005a   Data           2  usart.o(.data)
    __stdout                                 0x2000005c   Data           4  usart.o(.data)
    mallco_dev                               0x20000074   Data          28  malloc.o(.data)
    FLASH_SECTOR_COUNT                       0x20000090   Data           2  diskio.o(.data)
    file                                     0x200000a0   Data           4  exfuns.o(.data)
    ftemp                                    0x200000a4   Data           4  exfuns.o(.data)
    fatbuf                                   0x200000a8   Data           4  exfuns.o(.data)
    fs                                       0x200000ac   Data           8  exfuns.o(.data)
    sys_cmd_tab                              0x200000b4   Data          28  usmart.o(.data)
    usmart_nametab                           0x200000d0   Data         136  usmart_config.o(.data)
    usmart_dev                               0x20000158   Data         244  usmart_config.o(.data)
    AD_Value                                 0x2000024c   Data           6  bsp_adc.o(.data)
    PH_Value                                 0x20000254   Data           4  data_processing.o(.data)
    TDS_value                                0x20000258   Data           4  data_processing.o(.data)
    temp_data                                0x2000025c   Data           4  data_processing.o(.data)
    compensationCoefficient                  0x20000260   Data           4  data_processing.o(.data)
    kValue                                   0x20000264   Data           4  data_processing.o(.data)
    EC_value                                 0x20000268   Data           4  data_processing.o(.data)
    kValue_Low                               0x2000026c   Data           4  data_processing.o(.data)
    kValue_High                              0x20000270   Data           4  data_processing.o(.data)
    rawEC                                    0x20000274   Data           4  data_processing.o(.data)
    EC_valueTemp                             0x20000278   Data           4  data_processing.o(.data)
    TDS_voltage                              0x2000027c   Data           4  data_processing.o(.data)
    compensationVolatge                      0x20000280   Data           4  data_processing.o(.data)
    EC_voltage                               0x20000284   Data           4  data_processing.o(.data)
    ADC_ConvertedValueLocal                  0x20000288   Data           4  data_processing.o(.data)
    lcddev                                   0x2000028c   Data          14  lcd.o(.bss)
    SDIO_InitStructure                       0x200002a0   Data          24  sdio_sdcard.o(.bss)
    SDIO_CmdInitStructure                    0x200002b8   Data          20  sdio_sdcard.o(.bss)
    SDIO_DataInitStructure                   0x200002cc   Data          24  sdio_sdcard.o(.bss)
    SDCardInfo                               0x20000308   Data          88  sdio_sdcard.o(.bss)
    SDIO_DATA_BUFFER                         0x20000360   Data         512  sdio_sdcard.o(.bss)
    USART_RX_BUF                             0x20000560   Data         200  usart.o(.bss)
    mem1base                                 0x20000640   Data       58368  malloc.o(.bss)
    mem1mapbase                              0x2000ea40   Data        3648  malloc.o(.bss)
    ftinfo                                   0x2000f880   Data          33  fontupd.o(.bss)
    Tx                                       0x2000f8a1   Data          20  data_processing.o(.bss)
    __libspace_start                         0x2000f8b8   Data          96  libspace.o(.bss)
    __temporary_stack_top$libspace           0x2000f918   Data           0  libspace.o(.bss)
    mem2base                                 0x68000000   Data          32  malloc.o(.ARM.__AT_0x68000000)
    mem2mapbase                              0x68000020   Data           2  malloc.o(.ARM.__AT_0x68000020)



==============================================================================

Memory Map of the image

  Image Entry point : 0x08000131

  Load Region LR_IROM1 (Base: 0x08000000, Size: 0x0000e2b0, Max: 0x00080000, ABSOLUTE, COMPRESSED[0x0000e120])

    Execution Region ER_IROM1 (Exec base: 0x08000000, Load base: 0x08000000, Size: 0x0000e024, Max: 0x00080000, ABSOLUTE)

    Exec Addr    Load Addr    Size         Type   Attr      Idx    E Section Name        Object

    0x08000000   0x08000000   0x00000130   Data   RO         1472    RESET               startup_stm32f10x_hd.o
    0x08000130   0x08000130   0x00000008   Code   RO         4712  * !!!main             c_w.l(__main.o)
    0x08000138   0x08000138   0x00000034   Code   RO         5024    !!!scatter          c_w.l(__scatter.o)
    0x0800016c   0x0800016c   0x0000005a   Code   RO         5022    !!dczerorl2         c_w.l(__dczerorl2.o)
    0x080001c6   0x080001c6   0x00000002   PAD
    0x080001c8   0x080001c8   0x0000001c   Code   RO         5026    !!handler_zi        c_w.l(__scatter_zi.o)
    0x080001e4   0x080001e4   0x00000000   Code   RO         4699    .ARM.Collect$$_printf_percent$$00000000  c_w.l(_printf_percent.o)
    0x080001e4   0x080001e4   0x00000006   Code   RO         4698    .ARM.Collect$$_printf_percent$$00000003  c_w.l(_printf_f.o)
    0x080001ea   0x080001ea   0x00000006   Code   RO         4696    .ARM.Collect$$_printf_percent$$00000009  c_w.l(_printf_d.o)
    0x080001f0   0x080001f0   0x00000006   Code   RO         4697    .ARM.Collect$$_printf_percent$$0000000A  c_w.l(_printf_u.o)
    0x080001f6   0x080001f6   0x00000006   Code   RO         4695    .ARM.Collect$$_printf_percent$$0000000C  c_w.l(_printf_x.o)
    0x080001fc   0x080001fc   0x00000006   Code   RO         4693    .ARM.Collect$$_printf_percent$$00000013  c_w.l(_printf_c.o)
    0x08000202   0x08000202   0x00000006   Code   RO         4694    .ARM.Collect$$_printf_percent$$00000014  c_w.l(_printf_s.o)
    0x08000208   0x08000208   0x00000004   Code   RO         4793    .ARM.Collect$$_printf_percent$$00000017  c_w.l(_printf_percent_end.o)
    0x0800020c   0x0800020c   0x00000002   Code   RO         4893    .ARM.Collect$$libinit$$00000000  c_w.l(libinit.o)
    0x0800020e   0x0800020e   0x00000000   Code   RO         4895    .ARM.Collect$$libinit$$00000002  c_w.l(libinit2.o)
    0x0800020e   0x0800020e   0x00000000   Code   RO         4897    .ARM.Collect$$libinit$$00000004  c_w.l(libinit2.o)
    0x0800020e   0x0800020e   0x00000000   Code   RO         4900    .ARM.Collect$$libinit$$0000000A  c_w.l(libinit2.o)
    0x0800020e   0x0800020e   0x00000000   Code   RO         4902    .ARM.Collect$$libinit$$0000000C  c_w.l(libinit2.o)
    0x0800020e   0x0800020e   0x00000000   Code   RO         4904    .ARM.Collect$$libinit$$0000000E  c_w.l(libinit2.o)
    0x0800020e   0x0800020e   0x00000006   Code   RO         4905    .ARM.Collect$$libinit$$0000000F  c_w.l(libinit2.o)
    0x08000214   0x08000214   0x00000000   Code   RO         4907    .ARM.Collect$$libinit$$00000011  c_w.l(libinit2.o)
    0x08000214   0x08000214   0x00000000   Code   RO         4909    .ARM.Collect$$libinit$$00000013  c_w.l(libinit2.o)
    0x08000214   0x08000214   0x00000000   Code   RO         4911    .ARM.Collect$$libinit$$00000015  c_w.l(libinit2.o)
    0x08000214   0x08000214   0x0000000a   Code   RO         4912    .ARM.Collect$$libinit$$00000016  c_w.l(libinit2.o)
    0x0800021e   0x0800021e   0x00000000   Code   RO         4913    .ARM.Collect$$libinit$$00000017  c_w.l(libinit2.o)
    0x0800021e   0x0800021e   0x00000000   Code   RO         4915    .ARM.Collect$$libinit$$00000019  c_w.l(libinit2.o)
    0x0800021e   0x0800021e   0x00000000   Code   RO         4917    .ARM.Collect$$libinit$$0000001B  c_w.l(libinit2.o)
    0x0800021e   0x0800021e   0x00000000   Code   RO         4919    .ARM.Collect$$libinit$$0000001D  c_w.l(libinit2.o)
    0x0800021e   0x0800021e   0x00000000   Code   RO         4921    .ARM.Collect$$libinit$$0000001F  c_w.l(libinit2.o)
    0x0800021e   0x0800021e   0x00000000   Code   RO         4923    .ARM.Collect$$libinit$$00000021  c_w.l(libinit2.o)
    0x0800021e   0x0800021e   0x00000000   Code   RO         4925    .ARM.Collect$$libinit$$00000023  c_w.l(libinit2.o)
    0x0800021e   0x0800021e   0x00000000   Code   RO         4927    .ARM.Collect$$libinit$$00000025  c_w.l(libinit2.o)
    0x0800021e   0x0800021e   0x00000000   Code   RO         4931    .ARM.Collect$$libinit$$0000002C  c_w.l(libinit2.o)
    0x0800021e   0x0800021e   0x00000000   Code   RO         4933    .ARM.Collect$$libinit$$0000002E  c_w.l(libinit2.o)
    0x0800021e   0x0800021e   0x00000000   Code   RO         4935    .ARM.Collect$$libinit$$00000030  c_w.l(libinit2.o)
    0x0800021e   0x0800021e   0x00000000   Code   RO         4937    .ARM.Collect$$libinit$$00000032  c_w.l(libinit2.o)
    0x0800021e   0x0800021e   0x00000002   Code   RO         4938    .ARM.Collect$$libinit$$00000033  c_w.l(libinit2.o)
    0x08000220   0x08000220   0x00000002   Code   RO         4982    .ARM.Collect$$libshutdown$$00000000  c_w.l(libshutdown.o)
    0x08000222   0x08000222   0x00000000   Code   RO         4991    .ARM.Collect$$libshutdown$$00000002  c_w.l(libshutdown2.o)
    0x08000222   0x08000222   0x00000000   Code   RO         4993    .ARM.Collect$$libshutdown$$00000004  c_w.l(libshutdown2.o)
    0x08000222   0x08000222   0x00000000   Code   RO         4996    .ARM.Collect$$libshutdown$$00000007  c_w.l(libshutdown2.o)
    0x08000222   0x08000222   0x00000000   Code   RO         4999    .ARM.Collect$$libshutdown$$0000000A  c_w.l(libshutdown2.o)
    0x08000222   0x08000222   0x00000000   Code   RO         5001    .ARM.Collect$$libshutdown$$0000000C  c_w.l(libshutdown2.o)
    0x08000222   0x08000222   0x00000000   Code   RO         5004    .ARM.Collect$$libshutdown$$0000000F  c_w.l(libshutdown2.o)
    0x08000222   0x08000222   0x00000002   Code   RO         5005    .ARM.Collect$$libshutdown$$00000010  c_w.l(libshutdown2.o)
    0x08000224   0x08000224   0x00000000   Code   RO         4778    .ARM.Collect$$rtentry$$00000000  c_w.l(__rtentry.o)
    0x08000224   0x08000224   0x00000000   Code   RO         4812    .ARM.Collect$$rtentry$$00000002  c_w.l(__rtentry2.o)
    0x08000224   0x08000224   0x00000006   Code   RO         4824    .ARM.Collect$$rtentry$$00000004  c_w.l(__rtentry4.o)
    0x0800022a   0x0800022a   0x00000000   Code   RO         4814    .ARM.Collect$$rtentry$$00000009  c_w.l(__rtentry2.o)
    0x0800022a   0x0800022a   0x00000004   Code   RO         4815    .ARM.Collect$$rtentry$$0000000A  c_w.l(__rtentry2.o)
    0x0800022e   0x0800022e   0x00000000   Code   RO         4817    .ARM.Collect$$rtentry$$0000000C  c_w.l(__rtentry2.o)
    0x0800022e   0x0800022e   0x00000008   Code   RO         4818    .ARM.Collect$$rtentry$$0000000D  c_w.l(__rtentry2.o)
    0x08000236   0x08000236   0x00000002   Code   RO         4941    .ARM.Collect$$rtexit$$00000000  c_w.l(rtexit.o)
    0x08000238   0x08000238   0x00000000   Code   RO         4952    .ARM.Collect$$rtexit$$00000002  c_w.l(rtexit2.o)
    0x08000238   0x08000238   0x00000004   Code   RO         4953    .ARM.Collect$$rtexit$$00000003  c_w.l(rtexit2.o)
    0x0800023c   0x0800023c   0x00000006   Code   RO         4954    .ARM.Collect$$rtexit$$00000004  c_w.l(rtexit2.o)
    0x08000242   0x08000242   0x00000002   PAD
    0x08000244   0x08000244   0x0000003c   Code   RO         1473    .text               startup_stm32f10x_hd.o
    0x08000280   0x08000280   0x00000002   Code   RO         4632    .text               c_w.l(use_no_semi_2.o)
    0x08000282   0x08000282   0x00000048   Code   RO         4634    .text               c_w.l(llsdiv.o)
    0x080002ca   0x080002ca   0x00000002   PAD
    0x080002cc   0x080002cc   0x00000018   Code   RO         4640    .text               c_w.l(noretval__2printf.o)
    0x080002e4   0x080002e4   0x00000028   Code   RO         4642    .text               c_w.l(noretval__2sprintf.o)
    0x0800030c   0x0800030c   0x0000004e   Code   RO         4646    .text               c_w.l(_printf_pad.o)
    0x0800035a   0x0800035a   0x00000052   Code   RO         4648    .text               c_w.l(_printf_str.o)
    0x080003ac   0x080003ac   0x00000078   Code   RO         4650    .text               c_w.l(_printf_dec.o)
    0x08000424   0x08000424   0x00000058   Code   RO         4655    .text               c_w.l(_printf_hex_int.o)
    0x0800047c   0x0800047c   0x00000188   Code   RO         4690    .text               c_w.l(__printf_flags_ss_wp.o)
    0x08000604   0x08000604   0x0000008a   Code   RO         4706    .text               c_w.l(rt_memcpy_v6.o)
    0x0800068e   0x0800068e   0x00000002   PAD
    0x08000690   0x08000690   0x00000080   Code   RO         4708    .text               c_w.l(strcmpv7m.o)
    0x08000710   0x08000710   0x00000006   Code   RO         4710    .text               c_w.l(heapauxi.o)
    0x08000716   0x08000716   0x00000002   Code   RO         4776    .text               c_w.l(use_no_semi.o)
    0x08000718   0x08000718   0x000000ee   Code   RO         4779    .text               c_w.l(lludivv7m.o)
    0x08000806   0x08000806   0x000000b2   Code   RO         4781    .text               c_w.l(_printf_intcommon.o)
    0x080008b8   0x080008b8   0x0000041e   Code   RO         4783    .text               c_w.l(_printf_fp_dec.o)
    0x08000cd6   0x08000cd6   0x00000002   PAD
    0x08000cd8   0x08000cd8   0x00000030   Code   RO         4785    .text               c_w.l(_printf_char_common.o)
    0x08000d08   0x08000d08   0x0000000a   Code   RO         4787    .text               c_w.l(_sputc.o)
    0x08000d12   0x08000d12   0x0000002c   Code   RO         4789    .text               c_w.l(_printf_char.o)
    0x08000d3e   0x08000d3e   0x00000002   PAD
    0x08000d40   0x08000d40   0x00000024   Code   RO         4791    .text               c_w.l(_printf_char_file.o)
    0x08000d64   0x08000d64   0x00000064   Code   RO         4794    .text               c_w.l(rt_memcpy_w.o)
    0x08000dc8   0x08000dc8   0x00000008   Code   RO         4833    .text               c_w.l(rt_locale_intlibspace.o)
    0x08000dd0   0x08000dd0   0x0000008a   Code   RO         4835    .text               c_w.l(lludiv10.o)
    0x08000e5a   0x08000e5a   0x00000002   PAD
    0x08000e5c   0x08000e5c   0x00000080   Code   RO         4837    .text               c_w.l(_printf_fp_infnan.o)
    0x08000edc   0x08000edc   0x000000e4   Code   RO         4841    .text               c_w.l(bigflt0.o)
    0x08000fc0   0x08000fc0   0x00000008   Code   RO         4866    .text               c_w.l(ferror.o)
    0x08000fc8   0x08000fc8   0x00000008   Code   RO         4879    .text               c_w.l(libspace.o)
    0x08000fd0   0x08000fd0   0x0000004a   Code   RO         4882    .text               c_w.l(sys_stackheap_outer.o)
    0x0800101a   0x0800101a   0x00000012   Code   RO         4886    .text               c_w.l(exit.o)
    0x0800102c   0x0800102c   0x0000003e   Code   RO         4844    CL$$btod_d2e        c_w.l(btod.o)
    0x0800106a   0x0800106a   0x00000046   Code   RO         4846    CL$$btod_d2e_denorm_low  c_w.l(btod.o)
    0x080010b0   0x080010b0   0x00000060   Code   RO         4845    CL$$btod_d2e_norm_op1  c_w.l(btod.o)
    0x08001110   0x08001110   0x00000338   Code   RO         4854    CL$$btod_div_common  c_w.l(btod.o)
    0x08001448   0x08001448   0x000000dc   Code   RO         4851    CL$$btod_e2e        c_w.l(btod.o)
    0x08001524   0x08001524   0x0000002a   Code   RO         4848    CL$$btod_ediv       c_w.l(btod.o)
    0x0800154e   0x0800154e   0x0000002a   Code   RO         4847    CL$$btod_emul       c_w.l(btod.o)
    0x08001578   0x08001578   0x00000244   Code   RO         4853    CL$$btod_mult_common  c_w.l(btod.o)
    0x080017bc   0x080017bc   0x00000014   Code   RO         4334    i.ADC_Cmd           stm32f10x_adc.o
    0x080017d0   0x080017d0   0x00000014   Code   RO         4335    i.ADC_DMACmd        stm32f10x_adc.o
    0x080017e4   0x080017e4   0x0000000e   Code   RO         4342    i.ADC_GetCalibrationStatus  stm32f10x_adc.o
    0x080017f2   0x080017f2   0x0000000e   Code   RO         4348    i.ADC_GetResetCalibrationStatus  stm32f10x_adc.o
    0x08001800   0x08001800   0x00000048   Code   RO         4352    i.ADC_Init          stm32f10x_adc.o
    0x08001848   0x08001848   0x00000074   Code   RO         4356    i.ADC_RegularChannelConfig  stm32f10x_adc.o
    0x080018bc   0x080018bc   0x0000000a   Code   RO         4357    i.ADC_ResetCalibration  stm32f10x_adc.o
    0x080018c6   0x080018c6   0x00000014   Code   RO         4359    i.ADC_SoftwareStartConvCmd  stm32f10x_adc.o
    0x080018da   0x080018da   0x0000000a   Code   RO         4361    i.ADC_StartCalibration  stm32f10x_adc.o
    0x080018e4   0x080018e4   0x00000108   Code   RO         4310    i.ADCx_Init         bsp_adc.o
    0x080019ec   0x080019ec   0x00000038   Code   RO          913    i.BEEP_Init         beep.o
    0x08001a24   0x08001a24   0x00000002   Code   RO          238    i.BusFault_Handler  stm32f10x_it.o
    0x08001a26   0x08001a26   0x0000002a   Code   RO          717    i.CmdError          sdio_sdcard.o
    0x08001a50   0x08001a50   0x00000050   Code   RO          718    i.CmdResp1Error     sdio_sdcard.o
    0x08001aa0   0x08001aa0   0x00000048   Code   RO          719    i.CmdResp2Error     sdio_sdcard.o
    0x08001ae8   0x08001ae8   0x00000030   Code   RO          720    i.CmdResp3Error     sdio_sdcard.o
    0x08001b18   0x08001b18   0x00000078   Code   RO          721    i.CmdResp6Error     sdio_sdcard.o
    0x08001b90   0x08001b90   0x0000003c   Code   RO          722    i.CmdResp7Error     sdio_sdcard.o
    0x08001bcc   0x08001bcc   0x00000016   Code   RO         2860    i.DMA_Cmd           stm32f10x_dma.o
    0x08001be2   0x08001be2   0x00000002   PAD
    0x08001be4   0x08001be4   0x000000e4   Code   RO         2861    i.DMA_DeInit        stm32f10x_dma.o
    0x08001cc8   0x08001cc8   0x0000003a   Code   RO         2866    i.DMA_Init          stm32f10x_dma.o
    0x08001d02   0x08001d02   0x00000002   PAD
    0x08001d04   0x08001d04   0x00000068   Code   RO         1271    i.DS18B20_Get_Temp  ds18b20.o
    0x08001d6c   0x08001d6c   0x00000020   Code   RO         1273    i.DS18B20_Mode_IPU  ds18b20.o
    0x08001d8c   0x08001d8c   0x00000024   Code   RO         1274    i.DS18B20_Mode_Out_PP  ds18b20.o
    0x08001db0   0x08001db0   0x0000005c   Code   RO         1275    i.DS18B20_Presence  ds18b20.o
    0x08001e0c   0x08001e0c   0x00000058   Code   RO         1276    i.DS18B20_Read_Byte  ds18b20.o
    0x08001e64   0x08001e64   0x00000034   Code   RO         1277    i.DS18B20_Rst       ds18b20.o
    0x08001e98   0x08001e98   0x00000060   Code   RO         1279    i.DS18B20_Write_Byte  ds18b20.o
    0x08001ef8   0x08001ef8   0x00000002   Code   RO          239    i.DebugMon_Handler  stm32f10x_it.o
    0x08001efa   0x08001efa   0x00000002   PAD
    0x08001efc   0x08001efc   0x00000040   Code   RO         4550    i.Display_Data      data_processing.o
    0x08001f3c   0x08001f3c   0x00000180   Code   RO         4551    i.EC_Value_Conversion  data_processing.o
    0x080020bc   0x080020bc   0x00000020   Code   RO         1524    i.FSMC_NORSRAMCmd   stm32f10x_fsmc.o
    0x080020dc   0x080020dc   0x000000c8   Code   RO         1526    i.FSMC_NORSRAMInit  stm32f10x_fsmc.o
    0x080021a4   0x080021a4   0x00000138   Code   RO          723    i.FindSCR           sdio_sdcard.o
    0x080022dc   0x080022dc   0x0000009c   Code   RO         1639    i.GPIO_Init         stm32f10x_gpio.o
    0x08002378   0x08002378   0x00000058   Code   RO         1641    i.GPIO_PinRemapConfig  stm32f10x_gpio.o
    0x080023d0   0x080023d0   0x0000000e   Code   RO         1643    i.GPIO_ReadInputDataBit  stm32f10x_gpio.o
    0x080023de   0x080023de   0x00000004   Code   RO         1646    i.GPIO_ResetBits    stm32f10x_gpio.o
    0x080023e2   0x080023e2   0x00000004   Code   RO         1647    i.GPIO_SetBits      stm32f10x_gpio.o
    0x080023e6   0x080023e6   0x0000000a   Code   RO         1650    i.GPIO_WriteBit     stm32f10x_gpio.o
    0x080023f0   0x080023f0   0x0000008c   Code   RO         3974    i.Get_HzMat         text.o
    0x0800247c   0x0800247c   0x00000002   Code   RO          240    i.HardFault_Handler  stm32f10x_it.o
    0x0800247e   0x0800247e   0x00000004   Code   RO         1357    i.INTX_DISABLE      sys.o
    0x08002482   0x08002482   0x00000004   Code   RO         1358    i.INTX_ENABLE       sys.o
    0x08002486   0x08002486   0x00000002   PAD
    0x08002488   0x08002488   0x0000008c   Code   RO          724    i.IsCardProgramming  sdio_sdcard.o
    0x08002514   0x08002514   0x0000003c   Code   RO          368    i.KEY_Init          key.o
    0x08002550   0x08002550   0x000000cc   Code   RO          369    i.KEY_Scan          key.o
    0x0800261c   0x0800261c   0x00000030   Code   RO          388    i.LCD_Clear         lcd.o
    0x0800264c   0x0800264c   0x000000b8   Code   RO          392    i.LCD_Display_Dir   lcd.o
    0x08002704   0x08002704   0x000000ac   Code   RO          397    i.LCD_Fast_DrawPoint  lcd.o
    0x080027b0   0x080027b0   0x00000048   Code   RO          398    i.LCD_Fill          lcd.o
    0x080027f8   0x080027f8   0x00001e48   Code   RO          399    i.LCD_Init          lcd.o
    0x08004640   0x08004640   0x00000014   Code   RO          401    i.LCD_RD_DATA       lcd.o
    0x08004654   0x08004654   0x0000003c   Code   RO          404    i.LCD_SSD_BackLightSet  lcd.o
    0x08004690   0x08004690   0x00000144   Code   RO          405    i.LCD_Scan_Dir      lcd.o
    0x080047d4   0x080047d4   0x000000b4   Code   RO          406    i.LCD_SetCursor     lcd.o
    0x08004888   0x08004888   0x000000cc   Code   RO          408    i.LCD_ShowChar      lcd.o
    0x08004954   0x08004954   0x00000054   Code   RO          410    i.LCD_ShowString    lcd.o
    0x080049a8   0x080049a8   0x00000014   Code   RO          415    i.LCD_WriteRAM_Prepare  lcd.o
    0x080049bc   0x080049bc   0x00000010   Code   RO          416    i.LCD_WriteReg      lcd.o
    0x080049cc   0x080049cc   0x00000050   Code   RO          356    i.LED_Init          led.o
    0x08004a1c   0x08004a1c   0x00000050   Code   RO          995    i.MYDMA_SRAMLCD_Init  dma.o
    0x08004a6c   0x08004a6c   0x00000002   Code   RO          241    i.MemManage_Handler  stm32f10x_it.o
    0x08004a6e   0x08004a6e   0x00000002   Code   RO          242    i.NMI_Handler       stm32f10x_it.o
    0x08004a70   0x08004a70   0x00000064   Code   RO         1477    i.NVIC_Init         misc.o
    0x08004ad4   0x08004ad4   0x00000014   Code   RO         1478    i.NVIC_PriorityGroupConfig  misc.o
    0x08004ae8   0x08004ae8   0x00000026   Code   RO         1168    i.OLED_Clear        oled.o
    0x08004b0e   0x08004b0e   0x00000002   PAD
    0x08004b10   0x08004b10   0x00000050   Code   RO         1169    i.OLED_I2C_Init     oled.o
    0x08004b60   0x08004b60   0x00000054   Code   RO         1170    i.OLED_I2C_SendByte  oled.o
    0x08004bb4   0x08004bb4   0x00000034   Code   RO         1171    i.OLED_I2C_Start    oled.o
    0x08004be8   0x08004be8   0x0000002c   Code   RO         1172    i.OLED_I2C_Stop     oled.o
    0x08004c14   0x08004c14   0x000000ac   Code   RO         1173    i.OLED_Init         oled.o
    0x08004cc0   0x08004cc0   0x00000022   Code   RO         1175    i.OLED_SetCursor    oled.o
    0x08004ce2   0x08004ce2   0x00000002   PAD
    0x08004ce4   0x08004ce4   0x00000068   Code   RO         1177    i.OLED_ShowChar     oled.o
    0x08004d4c   0x08004d4c   0x00000026   Code   RO         1181    i.OLED_ShowString   oled.o
    0x08004d72   0x08004d72   0x00000022   Code   RO         1182    i.OLED_WriteCommand  oled.o
    0x08004d94   0x08004d94   0x00000022   Code   RO         1183    i.OLED_WriteData    oled.o
    0x08004db6   0x08004db6   0x00000002   PAD
    0x08004db8   0x08004db8   0x00000028   Code   RO         1013    i.OV2640_Auto_Exposure  ov2640.o
    0x08004de0   0x08004de0   0x0000003a   Code   RO         1014    i.OV2640_Brightness  ov2640.o
    0x08004e1a   0x08004e1a   0x00000026   Code   RO         1015    i.OV2640_Color_Bar  ov2640.o
    0x08004e40   0x08004e40   0x00000040   Code   RO         1016    i.OV2640_Color_Saturation  ov2640.o
    0x08004e80   0x08004e80   0x00000070   Code   RO         1017    i.OV2640_Contrast   ov2640.o
    0x08004ef0   0x08004ef0   0x0000004e   Code   RO         1018    i.OV2640_ImageSize_Set  ov2640.o
    0x08004f3e   0x08004f3e   0x00000088   Code   RO         1019    i.OV2640_ImageWin_Set  ov2640.o
    0x08004fc6   0x08004fc6   0x00000002   PAD
    0x08004fc8   0x08004fc8   0x00000194   Code   RO         1020    i.OV2640_Init       ov2640.o
    0x0800515c   0x0800515c   0x00000040   Code   RO         1021    i.OV2640_JPEG_Mode  ov2640.o
    0x0800519c   0x0800519c   0x00000064   Code   RO         1022    i.OV2640_Light_Mode  ov2640.o
    0x08005200   0x08005200   0x00000054   Code   RO         1023    i.OV2640_OutSize_Set  ov2640.o
    0x08005254   0x08005254   0x00000024   Code   RO         1024    i.OV2640_RGB565_Mode  ov2640.o
    0x08005278   0x08005278   0x00000070   Code   RO         1025    i.OV2640_Special_Effects  ov2640.o
    0x080052e8   0x080052e8   0x0000007c   Code   RO         1026    i.OV2640_Window_Set  ov2640.o
    0x08005364   0x08005364   0x000000d0   Code   RO         4553    i.PH_Value_Conversion  data_processing.o
    0x08005434   0x08005434   0x00000002   Code   RO          243    i.PendSV_Handler    stm32f10x_it.o
    0x08005436   0x08005436   0x00000002   PAD
    0x08005438   0x08005438   0x00000014   Code   RO         1747    i.RCC_ADCCLKConfig  stm32f10x_rcc.o
    0x0800544c   0x0800544c   0x00000018   Code   RO         1748    i.RCC_AHBPeriphClockCmd  stm32f10x_rcc.o
    0x08005464   0x08005464   0x00000018   Code   RO         1749    i.RCC_APB1PeriphClockCmd  stm32f10x_rcc.o
    0x0800547c   0x0800547c   0x00000018   Code   RO         1751    i.RCC_APB2PeriphClockCmd  stm32f10x_rcc.o
    0x08005494   0x08005494   0x00000094   Code   RO         1759    i.RCC_GetClocksFreq  stm32f10x_rcc.o
    0x08005528   0x08005528   0x0000006c   Code   RO         1115    i.SCCB_Init         sccb.o
    0x08005594   0x08005594   0x00000044   Code   RO         1116    i.SCCB_No_Ack       sccb.o
    0x080055d8   0x080055d8   0x00000074   Code   RO         1117    i.SCCB_RD_Byte      sccb.o
    0x0800564c   0x0800564c   0x0000004c   Code   RO         1118    i.SCCB_RD_Reg       sccb.o
    0x08005698   0x08005698   0x00000034   Code   RO         1119    i.SCCB_Start        sccb.o
    0x080056cc   0x080056cc   0x00000038   Code   RO         1120    i.SCCB_Stop         sccb.o
    0x08005704   0x08005704   0x00000090   Code   RO         1121    i.SCCB_WR_Byte      sccb.o
    0x08005794   0x08005794   0x0000003e   Code   RO         1122    i.SCCB_WR_Reg       sccb.o
    0x080057d2   0x080057d2   0x00000002   PAD
    0x080057d4   0x080057d4   0x0000008c   Code   RO          725    i.SDEnWideBus       sdio_sdcard.o
    0x08005860   0x08005860   0x0000000c   Code   RO         2931    i.SDIO_ClearFlag    stm32f10x_sdio.o
    0x0800586c   0x0800586c   0x0000000c   Code   RO         2933    i.SDIO_ClockCmd     stm32f10x_sdio.o
    0x08005878   0x08005878   0x00000014   Code   RO          726    i.SDIO_Clock_Set    sdio_sdcard.o
    0x0800588c   0x0800588c   0x0000000c   Code   RO         2936    i.SDIO_DMACmd       stm32f10x_sdio.o
    0x08005898   0x08005898   0x0000002c   Code   RO         2937    i.SDIO_DataConfig   stm32f10x_sdio.o
    0x080058c4   0x080058c4   0x00000024   Code   RO         2939    i.SDIO_DeInit       stm32f10x_sdio.o
    0x080058e8   0x080058e8   0x00000014   Code   RO         2943    i.SDIO_GetFlagStatus  stm32f10x_sdio.o
    0x080058fc   0x080058fc   0x00000010   Code   RO         2945    i.SDIO_GetPowerState  stm32f10x_sdio.o
    0x0800590c   0x0800590c   0x00000004   Code   RO          727    i.SDIO_IRQHandler   sdio_sdcard.o
    0x08005910   0x08005910   0x0000002c   Code   RO         2948    i.SDIO_Init         stm32f10x_sdio.o
    0x0800593c   0x0800593c   0x0000000c   Code   RO         2949    i.SDIO_ReadData     stm32f10x_sdio.o
    0x08005948   0x08005948   0x00000028   Code   RO         2951    i.SDIO_SendCommand  stm32f10x_sdio.o
    0x08005970   0x08005970   0x00000018   Code   RO         2953    i.SDIO_SetPowerState  stm32f10x_sdio.o
    0x08005988   0x08005988   0x0000000c   Code   RO         2959    i.SDIO_WriteData    stm32f10x_sdio.o
    0x08005994   0x08005994   0x00000060   Code   RO          728    i.SD_DMA_Config     sdio_sdcard.o
    0x080059f4   0x080059f4   0x0000004c   Code   RO          729    i.SD_EnableWideBusOperation  sdio_sdcard.o
    0x08005a40   0x08005a40   0x00000218   Code   RO          730    i.SD_GetCardInfo    sdio_sdcard.o
    0x08005c58   0x08005c58   0x000000e0   Code   RO          732    i.SD_Init           sdio_sdcard.o
    0x08005d38   0x08005d38   0x00000114   Code   RO          733    i.SD_InitializeCards  sdio_sdcard.o
    0x08005e4c   0x08005e4c   0x0000019c   Code   RO          735    i.SD_PowerON        sdio_sdcard.o
    0x08005fe8   0x08005fe8   0x000000e8   Code   RO          736    i.SD_ProcessIRQSrc  sdio_sdcard.o
    0x080060d0   0x080060d0   0x000001f8   Code   RO          737    i.SD_ReadBlock      sdio_sdcard.o
    0x080062c8   0x080062c8   0x00000078   Code   RO          738    i.SD_ReadDisk       sdio_sdcard.o
    0x08006340   0x08006340   0x00000260   Code   RO          739    i.SD_ReadMultiBlocks  sdio_sdcard.o
    0x080065a0   0x080065a0   0x0000002c   Code   RO          740    i.SD_SelectDeselect  sdio_sdcard.o
    0x080065cc   0x080065cc   0x00000018   Code   RO          742    i.SD_SetDeviceMode  sdio_sdcard.o
    0x080065e4   0x080065e4   0x000002cc   Code   RO          743    i.SD_WriteBlock     sdio_sdcard.o
    0x080068b0   0x080068b0   0x00000070   Code   RO          744    i.SD_WriteDisk      sdio_sdcard.o
    0x08006920   0x08006920   0x000002e4   Code   RO          745    i.SD_WriteMultiBlocks  sdio_sdcard.o
    0x08006c04   0x08006c04   0x00000094   Code   RO          591    i.SPI2_Init         spi.o
    0x08006c98   0x08006c98   0x00000050   Code   RO          592    i.SPI2_ReadWriteByte  spi.o
    0x08006ce8   0x08006ce8   0x0000001c   Code   RO          593    i.SPI2_SetSpeed     spi.o
    0x08006d04   0x08006d04   0x00000014   Code   RO         1952    i.SPI_Cmd           stm32f10x_spi.o
    0x08006d18   0x08006d18   0x0000000e   Code   RO         1960    i.SPI_I2S_GetFlagStatus  stm32f10x_spi.o
    0x08006d26   0x08006d26   0x00000004   Code   RO         1963    i.SPI_I2S_ReceiveData  stm32f10x_spi.o
    0x08006d2a   0x08006d2a   0x00000004   Code   RO         1964    i.SPI_I2S_SendData  stm32f10x_spi.o
    0x08006d2e   0x08006d2e   0x00000038   Code   RO         1965    i.SPI_Init          stm32f10x_spi.o
    0x08006d66   0x08006d66   0x00000002   Code   RO          244    i.SVC_Handler       stm32f10x_it.o
    0x08006d68   0x08006d68   0x000000a8   Code   RO          327    i.SetSysClockTo72   system_stm32f10x.o
    0x08006e10   0x08006e10   0x000000a4   Code   RO         3975    i.Show_Font         text.o
    0x08006eb4   0x08006eb4   0x000000ae   Code   RO         3976    i.Show_Str          text.o
    0x08006f62   0x08006f62   0x00000018   Code   RO         1481    i.SysTick_CLKSourceConfig  misc.o
    0x08006f7a   0x08006f7a   0x00000002   Code   RO          245    i.SysTick_Handler   stm32f10x_it.o
    0x08006f7c   0x08006f7c   0x00000050   Code   RO          329    i.SystemInit        system_stm32f10x.o
    0x08006fcc   0x08006fcc   0x000001a0   Code   RO         4554    i.TDS_Value_Conversion  data_processing.o
    0x0800716c   0x0800716c   0x0000008c   Code   RO         4555    i.TEMP_Value_Conversion  data_processing.o
    0x080071f8   0x080071f8   0x0000003c   Code   RO         3775    i.TIM4_IRQHandler   usmart.o
    0x08007234   0x08007234   0x00000040   Code   RO          925    i.TIM6_IRQHandler   timer.o
    0x08007274   0x08007274   0x00000006   Code   RO         2279    i.TIM_ClearFlag     stm32f10x_tim.o
    0x0800727a   0x0800727a   0x00000006   Code   RO         2280    i.TIM_ClearITPendingBit  stm32f10x_tim.o
    0x08007280   0x08007280   0x00000014   Code   RO         2285    i.TIM_Cmd           stm32f10x_tim.o
    0x08007294   0x08007294   0x00000004   Code   RO         2304    i.TIM_GetCounter    stm32f10x_tim.o
    0x08007298   0x08007298   0x0000000e   Code   RO         2305    i.TIM_GetFlagStatus  stm32f10x_tim.o
    0x080072a6   0x080072a6   0x00000018   Code   RO         2306    i.TIM_GetITStatus   stm32f10x_tim.o
    0x080072be   0x080072be   0x00000010   Code   RO         2310    i.TIM_ITConfig      stm32f10x_tim.o
    0x080072ce   0x080072ce   0x00000004   Code   RO         2344    i.TIM_SetAutoreload  stm32f10x_tim.o
    0x080072d2   0x080072d2   0x00000004   Code   RO         2350    i.TIM_SetCounter    stm32f10x_tim.o
    0x080072d6   0x080072d6   0x00000002   PAD
    0x080072d8   0x080072d8   0x0000009c   Code   RO         2356    i.TIM_TimeBaseInit  stm32f10x_tim.o
    0x08007374   0x08007374   0x00000060   Code   RO         3776    i.Timer4_Init       usmart.o
    0x080073d4   0x080073d4   0x00000064   Code   RO         1385    i.USART1_IRQHandler  usart.o
    0x08007438   0x08007438   0x00000014   Code   RO         2095    i.USART_Cmd         stm32f10x_usart.o
    0x0800744c   0x0800744c   0x0000000e   Code   RO         2098    i.USART_GetFlagStatus  stm32f10x_usart.o
    0x0800745a   0x0800745a   0x0000003e   Code   RO         2099    i.USART_GetITStatus  stm32f10x_usart.o
    0x08007498   0x08007498   0x00000030   Code   RO         2101    i.USART_ITConfig    stm32f10x_usart.o
    0x080074c8   0x080074c8   0x000000ac   Code   RO         2102    i.USART_Init        stm32f10x_usart.o
    0x08007574   0x08007574   0x00000008   Code   RO         2109    i.USART_ReceiveData  stm32f10x_usart.o
    0x0800757c   0x0800757c   0x00000008   Code   RO         2112    i.USART_SendData    stm32f10x_usart.o
    0x08007584   0x08007584   0x00000002   Code   RO          246    i.UsageFault_Handler  stm32f10x_it.o
    0x08007586   0x08007586   0x00000002   PAD
    0x08007588   0x08007588   0x00000058   Code   RO          619    i.W25QXX_Erase_Sector  w25qxx.o
    0x080075e0   0x080075e0   0x00000058   Code   RO          620    i.W25QXX_Init       w25qxx.o
    0x08007638   0x08007638   0x00000050   Code   RO          622    i.W25QXX_Read       w25qxx.o
    0x08007688   0x08007688   0x00000044   Code   RO          623    i.W25QXX_ReadID     w25qxx.o
    0x080076cc   0x080076cc   0x00000024   Code   RO          624    i.W25QXX_ReadSR     w25qxx.o
    0x080076f0   0x080076f0   0x0000000c   Code   RO          626    i.W25QXX_Wait_Busy  w25qxx.o
    0x080076fc   0x080076fc   0x000000ac   Code   RO          627    i.W25QXX_Write      w25qxx.o
    0x080077a8   0x080077a8   0x00000020   Code   RO          629    i.W25QXX_Write_Enable  w25qxx.o
    0x080077c8   0x080077c8   0x0000003e   Code   RO          630    i.W25QXX_Write_NoCheck  w25qxx.o
    0x08007806   0x08007806   0x00000002   PAD
    0x08007808   0x08007808   0x00000058   Code   RO          631    i.W25QXX_Write_Page  w25qxx.o
    0x08007860   0x08007860   0x00000028   Code   RO         4877    i.__ARM_fpclassify  m_ws.l(fpclassify.o)
    0x08007888   0x08007888   0x0000000e   Code   RO         4683    i._is_digit         c_w.l(__printf_wp.o)
    0x08007896   0x08007896   0x00000002   Code   RO         1386    i._sys_exit         usart.o
    0x08007898   0x08007898   0x00000068   Code   RO            1    i.camera_new_pathname  main.o
    0x08007900   0x08007900   0x0000005c   Code   RO         3245    i.check_fs          ff.o
    0x0800795c   0x0800795c   0x00000010   Code   RO         3246    i.chk_chr           ff.o
    0x0800796c   0x0800796c   0x00000024   Code   RO         3247    i.clmt_clust        ff.o
    0x08007990   0x08007990   0x00000018   Code   RO         3248    i.clust2sect        ff.o
    0x080079a8   0x080079a8   0x00000012   Code   RO          746    i.convert_from_bytes_to_power_of_two  sdio_sdcard.o
    0x080079ba   0x080079ba   0x0000009e   Code   RO         3249    i.create_chain      ff.o
    0x08007a58   0x08007a58   0x00000218   Code   RO         3250    i.create_name       ff.o
    0x08007c70   0x08007c70   0x00000026   Code   RO         1427    i.delay1_ms         delay1.o
    0x08007c96   0x08007c96   0x00000002   PAD
    0x08007c98   0x08007c98   0x0000003c   Code   RO         1330    i.delay_init        delay.o
    0x08007cd4   0x08007cd4   0x00000034   Code   RO         1331    i.delay_ms          delay.o
    0x08007d08   0x08007d08   0x00000034   Code   RO         1332    i.delay_us          delay.o
    0x08007d3c   0x08007d3c   0x00000042   Code   RO         3251    i.dir_alloc         ff.o
    0x08007d7e   0x08007d7e   0x00000002   PAD
    0x08007d80   0x08007d80   0x0000012c   Code   RO         3252    i.dir_find          ff.o
    0x08007eac   0x08007eac   0x000000e6   Code   RO         3253    i.dir_next          ff.o
    0x08007f92   0x08007f92   0x00000002   PAD
    0x08007f94   0x08007f94   0x00000164   Code   RO         3255    i.dir_register      ff.o
    0x080080f8   0x080080f8   0x0000007c   Code   RO         3257    i.dir_sdi           ff.o
    0x08008174   0x08008174   0x00000028   Code   RO         3185    i.disk_initialize   diskio.o
    0x0800819c   0x0800819c   0x00000074   Code   RO         3186    i.disk_ioctl        diskio.o
    0x08008210   0x08008210   0x0000004c   Code   RO         3187    i.disk_read         diskio.o
    0x0800825c   0x0800825c   0x00000004   Code   RO         3188    i.disk_status       diskio.o
    0x08008260   0x08008260   0x0000004c   Code   RO         3189    i.disk_write        diskio.o
    0x080082ac   0x080082ac   0x00000064   Code   RO         3571    i.exfuns_init       exfuns.o
    0x08008310   0x08008310   0x0000001c   Code   RO         3259    i.f_close           ff.o
    0x0800832c   0x0800832c   0x00000180   Code   RO         3265    i.f_mkdir           ff.o
    0x080084ac   0x080084ac   0x0000004c   Code   RO         3267    i.f_mount           ff.o
    0x080084f8   0x080084f8   0x00000158   Code   RO         3268    i.f_open            ff.o
    0x08008650   0x08008650   0x00000098   Code   RO         3278    i.f_sync            ff.o
    0x080086e8   0x080086e8   0x00000180   Code   RO         3282    i.f_write           ff.o
    0x08008868   0x08008868   0x00000070   Code   RO         3756    i.ff_convert        mycc936.o
    0x080088d8   0x080088d8   0x00000008   Code   RO         3190    i.ff_memalloc       diskio.o
    0x080088e0   0x080088e0   0x00000008   Code   RO         3191    i.ff_memfree        diskio.o
    0x080088e8   0x080088e8   0x00000024   Code   RO         3757    i.ff_wtoupper       mycc936.o
    0x0800890c   0x0800890c   0x00000238   Code   RO         3283    i.find_volume       ff.o
    0x08008b44   0x08008b44   0x00000066   Code   RO         3284    i.follow_path       ff.o
    0x08008baa   0x08008baa   0x00000002   PAD
    0x08008bac   0x08008bac   0x00000040   Code   RO         3932    i.font_init         fontupd.o
    0x08008bec   0x08008bec   0x00000018   Code   RO         1387    i.fputc             usart.o
    0x08008c04   0x08008c04   0x0000008c   Code   RO         3285    i.gen_numname       ff.o
    0x08008c90   0x08008c90   0x000000be   Code   RO         3286    i.get_fat           ff.o
    0x08008d4e   0x08008d4e   0x00000004   Code   RO         3192    i.get_fattime       diskio.o
    0x08008d52   0x08008d52   0x0000003c   Code   RO         3288    i.get_ldnumber      ff.o
    0x08008d8e   0x08008d8e   0x00000012   Code   RO         3289    i.ld_clust          ff.o
    0x08008da0   0x08008da0   0x000004ac   Code   RO            2    i.main              main.o
    0x0800924c   0x0800924c   0x00000010   Code   RO         3290    i.mem_cpy           ff.o
    0x0800925c   0x0800925c   0x0000000e   Code   RO         3291    i.mem_set           ff.o
    0x0800926a   0x0800926a   0x00000032   Code   RO         3292    i.move_window       ff.o
    0x0800929c   0x0800929c   0x00000058   Code   RO         3116    i.my_mem_free       malloc.o
    0x080092f4   0x080092f4   0x0000003c   Code   RO         3117    i.my_mem_init       malloc.o
    0x08009330   0x08009330   0x0000008c   Code   RO         3118    i.my_mem_malloc     malloc.o
    0x080093bc   0x080093bc   0x00000038   Code   RO         3119    i.my_mem_perused    malloc.o
    0x080093f4   0x080093f4   0x00000018   Code   RO         3120    i.myfree            malloc.o
    0x0800940c   0x0800940c   0x00000020   Code   RO         3121    i.mymalloc          malloc.o
    0x0800942c   0x0800942c   0x0000000c   Code   RO         3123    i.mymemset          malloc.o
    0x08009438   0x08009438   0x0000012c   Code   RO            3    i.ov2640_jpg_photo  main.o
    0x08009564   0x08009564   0x00000208   Code   RO            4    i.ov2640_sendphoto  main.o
    0x0800976c   0x0800976c   0x00000048   Code   RO            5    i.ov2640_speed_ctrl  main.o
    0x080097b4   0x080097b4   0x00000098   Code   RO         4556    i.printf_Data       data_processing.o
    0x0800984c   0x0800984c   0x000000f4   Code   RO         3293    i.put_fat           ff.o
    0x08009940   0x08009940   0x00000004   Code   RO         3777    i.read_addr         usmart.o
    0x08009944   0x08009944   0x00000062   Code   RO         3295    i.remove_chain      ff.o
    0x080099a6   0x080099a6   0x00000010   Code   RO         3296    i.st_clust          ff.o
    0x080099b6   0x080099b6   0x0000001a   Code   RO         3297    i.sum_sfn           ff.o
    0x080099d0   0x080099d0   0x000000b0   Code   RO         3298    i.sync_fs           ff.o
    0x08009a80   0x08009a80   0x00000052   Code   RO         3299    i.sync_window       ff.o
    0x08009ad2   0x08009ad2   0x00000002   PAD
    0x08009ad4   0x08009ad4   0x000000a0   Code   RO         1388    i.uart_init         usart.o
    0x08009b74   0x08009b74   0x00000094   Code   RO         3778    i.usmart_cmd_rec    usmart.o
    0x08009c08   0x08009c08   0x00000260   Code   RO         3779    i.usmart_exe        usmart.o
    0x08009e68   0x08009e68   0x0000009c   Code   RO         3865    i.usmart_get_aparm  usmart_str.o
    0x08009f04   0x08009f04   0x0000002e   Code   RO         3866    i.usmart_get_cmdname  usmart_str.o
    0x08009f32   0x08009f32   0x00000002   PAD
    0x08009f34   0x08009f34   0x00000168   Code   RO         3867    i.usmart_get_fname  usmart_str.o
    0x0800a09c   0x0800a09c   0x000000d0   Code   RO         3868    i.usmart_get_fparam  usmart_str.o
    0x0800a16c   0x0800a16c   0x00000024   Code   RO         3869    i.usmart_get_parmpos  usmart_str.o
    0x0800a190   0x0800a190   0x00000038   Code   RO         3780    i.usmart_get_runtime  usmart.o
    0x0800a1c8   0x0800a1c8   0x00000028   Code   RO         3781    i.usmart_init       usmart.o
    0x0800a1f0   0x0800a1f0   0x00000010   Code   RO         3870    i.usmart_pow        usmart_str.o
    0x0800a200   0x0800a200   0x00000030   Code   RO         3782    i.usmart_reset_runtime  usmart.o
    0x0800a230   0x0800a230   0x000000a4   Code   RO         3783    i.usmart_scan       usmart.o
    0x0800a2d4   0x0800a2d4   0x00000010   Code   RO         3871    i.usmart_search_nextc  usmart_str.o
    0x0800a2e4   0x0800a2e4   0x000000a0   Code   RO         3872    i.usmart_str2num    usmart_str.o
    0x0800a384   0x0800a384   0x00000018   Code   RO         3873    i.usmart_strcmp     usmart_str.o
    0x0800a39c   0x0800a39c   0x00000012   Code   RO         3874    i.usmart_strcopy    usmart_str.o
    0x0800a3ae   0x0800a3ae   0x00000012   Code   RO         3875    i.usmart_strlen     usmart_str.o
    0x0800a3c0   0x0800a3c0   0x00000670   Code   RO         3784    i.usmart_sys_cmd_exe  usmart.o
    0x0800aa30   0x0800aa30   0x00000026   Code   RO         3300    i.validate          ff.o
    0x0800aa56   0x0800aa56   0x00000004   Code   RO         3785    i.write_addr        usmart.o
    0x0800aa5a   0x0800aa5a   0x00000002   PAD
    0x0800aa5c   0x0800aa5c   0x0000002c   Code   RO         4871    locale$$code        c_w.l(lc_numeric_c.o)
    0x0800aa88   0x0800aa88   0x00000062   Code   RO         4714    x$fpl$d2f           fz_ws.l(d2f.o)
    0x0800aaea   0x0800aaea   0x00000002   PAD
    0x0800aaec   0x0800aaec   0x00000150   Code   RO         4716    x$fpl$dadd          fz_ws.l(daddsub_clz.o)
    0x0800ac3c   0x0800ac3c   0x00000010   Code   RO         4796    x$fpl$dcheck1       fz_ws.l(dcheck1.o)
    0x0800ac4c   0x0800ac4c   0x000002b0   Code   RO         4723    x$fpl$ddiv          fz_ws.l(ddiv.o)
    0x0800aefc   0x0800aefc   0x0000005a   Code   RO         4726    x$fpl$dfixu         fz_ws.l(dfixu.o)
    0x0800af56   0x0800af56   0x0000002e   Code   RO         4731    x$fpl$dflt          fz_ws.l(dflt_clz.o)
    0x0800af84   0x0800af84   0x00000026   Code   RO         4730    x$fpl$dfltu         fz_ws.l(dflt_clz.o)
    0x0800afaa   0x0800afaa   0x00000002   PAD
    0x0800afac   0x0800afac   0x00000154   Code   RO         4736    x$fpl$dmul          fz_ws.l(dmul.o)
    0x0800b100   0x0800b100   0x0000009c   Code   RO         4798    x$fpl$dnaninf       fz_ws.l(dnaninf.o)
    0x0800b19c   0x0800b19c   0x0000000c   Code   RO         4800    x$fpl$dretinf       fz_ws.l(dretinf.o)
    0x0800b1a8   0x0800b1a8   0x000001d4   Code   RO         4718    x$fpl$dsub          fz_ws.l(daddsub_clz.o)
    0x0800b37c   0x0800b37c   0x00000056   Code   RO         4738    x$fpl$f2d           fz_ws.l(f2d.o)
    0x0800b3d2   0x0800b3d2   0x00000002   PAD
    0x0800b3d4   0x0800b3d4   0x0000000c   Code   RO         4802    x$fpl$fcheck1       fz_ws.l(fcheck1.o)
    0x0800b3e0   0x0800b3e0   0x00000184   Code   RO         4747    x$fpl$fdiv          fz_ws.l(fdiv.o)
    0x0800b564   0x0800b564   0x00000036   Code   RO         4752    x$fpl$ffix          fz_ws.l(ffix.o)
    0x0800b59a   0x0800b59a   0x00000002   PAD
    0x0800b59c   0x0800b59c   0x00000026   Code   RO         4760    x$fpl$ffltu         fz_ws.l(fflt_clz.o)
    0x0800b5c2   0x0800b5c2   0x00000002   PAD
    0x0800b5c4   0x0800b5c4   0x00000102   Code   RO         4768    x$fpl$fmul          fz_ws.l(fmul.o)
    0x0800b6c6   0x0800b6c6   0x0000008c   Code   RO         4806    x$fpl$fnaninf       fz_ws.l(fnaninf.o)
    0x0800b752   0x0800b752   0x0000000a   Code   RO         4808    x$fpl$fretinf       fz_ws.l(fretinf.o)
    0x0800b75c   0x0800b75c   0x00000004   Code   RO         4770    x$fpl$printf1       fz_ws.l(printf1.o)
    0x0800b760   0x0800b760   0x00000064   Code   RO         4875    x$fpl$retnan        fz_ws.l(retnan.o)
    0x0800b7c4   0x0800b7c4   0x0000005c   Code   RO         4772    x$fpl$scalbn        fz_ws.l(scalbn.o)
    0x0800b820   0x0800b820   0x0000004c   Code   RO         4774    x$fpl$scalbnf       fz_ws.l(scalbnf.o)
    0x0800b86c   0x0800b86c   0x00000030   Code   RO         4939    x$fpl$trapveneer    fz_ws.l(trapv.o)
    0x0800b89c   0x0800b89c   0x00000000   Code   RO         4810    x$fpl$usenofp       fz_ws.l(usenofp.o)
    0x0800b89c   0x0800b89c   0x00000014   Data   RO            7    .constdata          main.o
    0x0800b8b0   0x0800b8b0   0x000017c0   Data   RO          419    .constdata          lcd.o
    0x0800d070   0x0800d070   0x000001c6   Data   RO         1027    .constdata          ov2640.o
    0x0800d236   0x0800d236   0x000005f0   Data   RO         1184    .constdata          oled.o
    0x0800d826   0x0800d826   0x00000002   PAD
    0x0800d828   0x0800d828   0x00000018   Data   RO         3129    .constdata          malloc.o
    0x0800d840   0x0800d840   0x0000003a   Data   RO         3301    .constdata          ff.o
    0x0800d87a   0x0800d87a   0x000003c0   Data   RO         3758    .constdata          mycc936.o
    0x0800dc3a   0x0800dc3a   0x00000028   Data   RO         4656    .constdata          c_w.l(_printf_hex_int.o)
    0x0800dc62   0x0800dc62   0x00000011   Data   RO         4691    .constdata          c_w.l(__printf_flags_ss_wp.o)
    0x0800dc73   0x0800dc73   0x00000001   PAD
    0x0800dc74   0x0800dc74   0x00000094   Data   RO         4842    .constdata          c_w.l(bigflt0.o)
    0x0800dd08   0x0800dd08   0x0000003c   Data   RO            9    .conststring        main.o
    0x0800dd44   0x0800dd44   0x00000028   Data   RO         3786    .conststring        usmart.o
    0x0800dd6c   0x0800dd6c   0x00000279   Data   RO         3851    .conststring        usmart_config.o
    0x0800dfe5   0x0800dfe5   0x00000003   PAD
    0x0800dfe8   0x0800dfe8   0x00000020   Data   RO         5020    Region$$Table       anon$$obj.o
    0x0800e008   0x0800e008   0x0000001c   Data   RO         4870    locale$$data        c_w.l(lc_numeric_c.o)


    Execution Region RW_IRAM1 (Exec base: 0x20000000, Load base: 0x0800e024, Size: 0x0000fd18, Max: 0x00010000, ABSOLUTE, COMPRESSED[0x000000fc])

    Exec Addr    Load Addr    Size         Type   Attr      Idx    E Section Name        Object

    0x20000000   COMPRESSED   0x00000028   Data   RW           11    .data               main.o
    0x20000028   COMPRESSED   0x00000014   Data   RW          330    .data               system_stm32f10x.o
    0x2000003c   COMPRESSED   0x00000001   Data   RW          370    .data               key.o
    0x2000003d   COMPRESSED   0x00000001   PAD
    0x2000003e   COMPRESSED   0x00000004   Data   RW          420    .data               lcd.o
    0x20000042   COMPRESSED   0x00000002   Data   RW          633    .data               w25qxx.o
    0x20000044   COMPRESSED   0x00000010   Data   RW          748    .data               sdio_sdcard.o
    0x20000054   COMPRESSED   0x00000001   Data   RW          927    .data               timer.o
    0x20000055   COMPRESSED   0x00000001   PAD
    0x20000056   COMPRESSED   0x00000004   Data   RW         1333    .data               delay.o
    0x2000005a   COMPRESSED   0x00000002   Data   RW         1390    .data               usart.o
    0x2000005c   COMPRESSED   0x00000004   Data   RW         1391    .data               usart.o
    0x20000060   COMPRESSED   0x00000014   Data   RW         1779    .data               stm32f10x_rcc.o
    0x20000074   COMPRESSED   0x0000001c   Data   RW         3130    .data               malloc.o
    0x20000090   COMPRESSED   0x00000002   Data   RW         3193    .data               diskio.o
    0x20000092   COMPRESSED   0x00000002   PAD
    0x20000094   COMPRESSED   0x0000000c   Data   RW         3302    .data               ff.o
    0x200000a0   COMPRESSED   0x00000014   Data   RW         3577    .data               exfuns.o
    0x200000b4   COMPRESSED   0x0000001c   Data   RW         3787    .data               usmart.o
    0x200000d0   COMPRESSED   0x00000088   Data   RW         3852    .data               usmart_config.o
    0x20000158   COMPRESSED   0x000000f4   Data   RW         3853    .data               usmart_config.o
    0x2000024c   COMPRESSED   0x00000006   Data   RW         4311    .data               bsp_adc.o
    0x20000252   COMPRESSED   0x00000002   PAD
    0x20000254   COMPRESSED   0x00000038   Data   RW         4561    .data               data_processing.o
    0x2000028c        -       0x0000000e   Zero   RW          418    .bss                lcd.o
    0x2000029a   COMPRESSED   0x00000006   PAD
    0x200002a0        -       0x000002c0   Zero   RW          747    .bss                sdio_sdcard.o
    0x20000560        -       0x000000c8   Zero   RW         1389    .bss                usart.o
    0x20000628   COMPRESSED   0x00000018   PAD
    0x20000640        -       0x0000e400   Zero   RW         3127    .bss                malloc.o
    0x2000ea40        -       0x00000e40   Zero   RW         3128    .bss                malloc.o
    0x2000f880        -       0x00000021   Zero   RW         3936    .bss                fontupd.o
    0x2000f8a1        -       0x00000014   Zero   RW         4557    .bss                data_processing.o
    0x2000f8b5   COMPRESSED   0x00000003   PAD
    0x2000f8b8        -       0x00000060   Zero   RW         4880    .bss                c_w.l(libspace.o)
    0x2000f918        -       0x00000000   Zero   RW         1471    HEAP                startup_stm32f10x_hd.o
    0x2000f918        -       0x00000400   Zero   RW         1470    STACK               startup_stm32f10x_hd.o



  Load Region LR$$.ARM.__AT_0x68000000 (Base: 0x68000000, Size: 0x00000000, Max: 0x00000020, ABSOLUTE)

    Execution Region ER$$.ARM.__AT_0x68000000 (Exec base: 0x68000000, Load base: 0x68000000, Size: 0x00000020, Max: 0x00000020, ABSOLUTE, UNINIT)

    Exec Addr    Load Addr    Size         Type   Attr      Idx    E Section Name        Object

    0x68000000        -       0x00000020   Zero   RW         3125    .ARM.__AT_0x68000000  malloc.o



  Load Region LR$$.ARM.__AT_0x68000020 (Base: 0x68000020, Size: 0x00000000, Max: 0x00000004, ABSOLUTE)

    Execution Region ER$$.ARM.__AT_0x68000020 (Exec base: 0x68000020, Load base: 0x68000020, Size: 0x00000004, Max: 0x00000004, ABSOLUTE, UNINIT)

    Exec Addr    Load Addr    Size         Type   Attr      Idx    E Section Name        Object

    0x68000020        -       0x00000002   Zero   RW         3126    .ARM.__AT_0x68000020  malloc.o


==============================================================================

Image component sizes


      Code (inc. data)   RO Data    RW Data    ZI Data      Debug   Object Name

        56          6          0          0          0        468   beep.o
       264         16          0          6          0       1179   bsp_adc.o
      1364        248          0         56         20       4859   data_processing.o
       164         26          0          4          0       1575   delay.o
        38          0          0          0          0        476   delay1.o
       332         14          0          2          0       5824   diskio.o
        80         10          0          0          0        557   dma.o
       500         34          0          0          0       4292   ds18b20.o
       100          6          0         20          0       1575   exfuns.o
      5144         60         58         12          0      35458   ff.o
        64          6          0          0         33       1913   fontupd.o
       264         22          0          1          0       1170   key.o
      9136        158       6080          4         14      47190   lcd.o
        80         10          0          0          0        471   led.o
      2192        520         80         40          0     304361   main.o
       412         46         24         28      62050       5788   malloc.o
       144         16          0          0          0       1945   misc.o
       148         14        960          0          0       1795   mycc936.o
       714         28       1520          0          0       6752   oled.o
      1450         82        454          0          0      10239   ov2640.o
       682         66          0          0          0       4607   sccb.o
      5776        266          0         16        704      33094   sdio_sdcard.o
       256         18          0          0          0       1685   spi.o
        60         22        304          0       1024        764   startup_stm32f10x_hd.o
       296         10          0          0          0       7145   stm32f10x_adc.o
       308         10          0          0          0       3442   stm32f10x_dma.o
       232          6          0          0          0       1781   stm32f10x_fsmc.o
       276          6          0          0          0       4898   stm32f10x_gpio.o
        18          0          0          0          0       3362   stm32f10x_it.o
       240         40          0         20          0       5373   stm32f10x_rcc.o
       284         66          0          0          0       7618   stm32f10x_sdio.o
        98          0          0          0          0       3638   stm32f10x_spi.o
       254         42          0          0          0       6883   stm32f10x_tim.o
       332          6          0          0          0       6081   stm32f10x_usart.o
         8          0          0          0          0        789   sys.o
       248         24          0         20          0       1585   system_stm32f10x.o
       478         16          0          0          0       3319   text.o
        64         24          0          1          0        665   timer.o
       286         26          0          6        200       3952   usart.o
      2876       1332         40         28          0       7250   usmart.o
         0          0        633        380          0       1504   usmart_config.o
      1058         20          0          0          0       8587   usmart_str.o
       726         52          0          2          0       6589   w25qxx.o

    ----------------------------------------------------------------------
     37542       3374      10190        652      64080     562498   Object Totals
         0          0         32          0          0          0   (incl. Generated)
        40          0          5          6         35          0   (incl. Padding)

    ----------------------------------------------------------------------

      Code (inc. data)   RO Data    RW Data    ZI Data      Debug   Library Member Name

        90          0          0          0          0          0   __dczerorl2.o
         8          0          0          0          0         68   __main.o
       392          4         17          0          0         92   __printf_flags_ss_wp.o
        14          0          0          0          0         68   __printf_wp.o
         0          0          0          0          0          0   __rtentry.o
        12          0          0          0          0          0   __rtentry2.o
         6          0          0          0          0          0   __rtentry4.o
        52          8          0          0          0          0   __scatter.o
        28          0          0          0          0          0   __scatter_zi.o
         6          0          0          0          0          0   _printf_c.o
        44          0          0          0          0        108   _printf_char.o
        48          6          0          0          0         96   _printf_char_common.o
        36          4          0          0          0         80   _printf_char_file.o
         6          0          0          0          0          0   _printf_d.o
       120         16          0          0          0         92   _printf_dec.o
         6          0          0          0          0          0   _printf_f.o
      1054          0          0          0          0        216   _printf_fp_dec.o
       128         16          0          0          0         84   _printf_fp_infnan.o
        88          4         40          0          0         88   _printf_hex_int.o
       178          0          0          0          0         88   _printf_intcommon.o
        78          0          0          0          0        108   _printf_pad.o
         0          0          0          0          0          0   _printf_percent.o
         4          0          0          0          0          0   _printf_percent_end.o
         6          0          0          0          0          0   _printf_s.o
        82          0          0          0          0         80   _printf_str.o
         6          0          0          0          0          0   _printf_u.o
         6          0          0          0          0          0   _printf_x.o
        10          0          0          0          0         68   _sputc.o
       228          4        148          0          0         96   bigflt0.o
      1936        128          0          0          0        672   btod.o
        18          0          0          0          0         80   exit.o
         8          0          0          0          0         68   ferror.o
         6          0          0          0          0        152   heapauxi.o
        44         10         28          0          0         76   lc_numeric_c.o
         2          0          0          0          0          0   libinit.o
        18          0          0          0          0          0   libinit2.o
         2          0          0          0          0          0   libshutdown.o
         2          0          0          0          0          0   libshutdown2.o
         8          4          0          0         96         68   libspace.o
        72          0          0          0          0         76   llsdiv.o
       138          0          0          0          0         80   lludiv10.o
       238          0          0          0          0        100   lludivv7m.o
        24          4          0          0          0         84   noretval__2printf.o
        40          6          0          0          0         84   noretval__2sprintf.o
         8          4          0          0          0         68   rt_locale_intlibspace.o
       138          0          0          0          0         68   rt_memcpy_v6.o
       100          0          0          0          0         80   rt_memcpy_w.o
         2          0          0          0          0          0   rtexit.o
        10          0          0          0          0          0   rtexit2.o
       128          0          0          0          0         68   strcmpv7m.o
        74          0          0          0          0         80   sys_stackheap_outer.o
         2          0          0          0          0         68   use_no_semi.o
         2          0          0          0          0         68   use_no_semi_2.o
        98          4          0          0          0         92   d2f.o
       804         16          0          0          0        272   daddsub_clz.o
        16          4          0          0          0         68   dcheck1.o
       688        140          0          0          0        208   ddiv.o
        90          4          0          0          0         92   dfixu.o
        84          0          0          0          0        136   dflt_clz.o
       340         12          0          0          0        104   dmul.o
       156          4          0          0          0         92   dnaninf.o
        12          0          0          0          0         68   dretinf.o
        86          4          0          0          0         84   f2d.o
        12          4          0          0          0         68   fcheck1.o
       388         76          0          0          0         96   fdiv.o
        54          4          0          0          0         84   ffix.o
        38          0          0          0          0         68   fflt_clz.o
       258          4          0          0          0         84   fmul.o
       140          4          0          0          0         84   fnaninf.o
        10          0          0          0          0         68   fretinf.o
         4          0          0          0          0         68   printf1.o
       100          0          0          0          0         68   retnan.o
        92          0          0          0          0         68   scalbn.o
        76          0          0          0          0         68   scalbnf.o
        48          0          0          0          0         68   trapv.o
         0          0          0          0          0          0   usenofp.o
        40          0          0          0          0         68   fpclassify.o

    ----------------------------------------------------------------------
      9414        498        234          0         96       5648   Library Totals
        24          0          1          0          0          0   (incl. Padding)

    ----------------------------------------------------------------------

      Code (inc. data)   RO Data    RW Data    ZI Data      Debug   Library Name

      5756        218        233          0         96       3472   c_w.l
      3594        280          0          0          0       2108   fz_ws.l
        40          0          0          0          0         68   m_ws.l

    ----------------------------------------------------------------------
      9414        498        234          0         96       5648   Library Totals

    ----------------------------------------------------------------------

==============================================================================


      Code (inc. data)   RO Data    RW Data    ZI Data      Debug   

     46956       3872      10424        652      64176     551138   Grand Totals
     46956       3872      10424        252      64176     551138   ELF Image Totals (compressed)
     46956       3872      10424        252          0          0   ROM Totals

==============================================================================

    Total RO  Size (Code + RO Data)                57380 (  56.04kB)
    Total RW  Size (RW Data + ZI Data)             64828 (  63.31kB)
    Total ROM Size (Code + RO Data + RW Data)      57632 (  56.28kB)

==============================================================================

